(dp0
(I4
I-3
tp1
ccopy_reg
_reconstructor
p2
(cookoobah.core
FlipFlopMirror
p3
c__builtin__
object
p4
Ntp5
Rp6
(dp7
S'all_states_idx'
p8
I0
sS'slope'
p9
I1
sS'locked'
p10
I01
sbs(I4
I4
tp11
g2
(cookoobah.core
Wall
p12
g4
Ntp13
Rp14
(dp15
g8
I0
sg10
I01
sbs(I-2
I0
tp16
g2
(g3
g4
Ntp17
Rp18
(dp19
g8
I1
sg9
I-1
sg10
I01
sbs(I1
I-5
tp20
g2
(g12
g4
Ntp21
Rp22
(dp23
g8
I0
sg10
I01
sbs(I-2
I-3
tp24
g2
(g3
g4
Ntp25
Rp26
(dp27
g8
I0
sg9
I1
sg10
I01
sbs(I4
I-5
tp28
g2
(g12
g4
Ntp29
Rp30
(dp31
g8
I0
sg10
I01
sbs(I-1
I2
tp32
g2
(g3
g4
Ntp33
Rp34
(dp35
g8
I0
sg9
I1
sg10
I01
sbs(I-1
I0
tp36
g2
(g3
g4
Ntp37
Rp38
(dp39
g8
I0
sg9
I1
sg10
I01
sbs(I-3
I-1
tp40
g2
(cookoobah.core
FlipFlop
p41
g4
Ntp42
Rp43
(dp44
g8
I0
sg10
I01
sS'is_on'
p45
I00
sbs(I0
I4
tp46
g2
(g12
g4
Ntp47
Rp48
(dp49
g8
I0
sg10
I01
sbs(I3
I-4
tp50
g2
(g3
g4
Ntp51
Rp52
(dp53
g8
I0
sg9
I1
sg10
I01
sbs(I1
I1
tp54
g2
(g3
g4
Ntp55
Rp56
(dp57
g8
I0
sg9
I1
sg10
I01
sbs(I0
I-2
tp58
g2
(g3
g4
Ntp59
Rp60
(dp61
g8
I0
sg9
I1
sg10
I01
sbs(I3
I2
tp62
g2
(g3
g4
Ntp63
Rp64
(dp65
g8
I0
sg9
I1
sg10
I01
sbs(I6
I-3
tp66
g2
(g12
g4
Ntp67
Rp68
(dp69
g8
I0
sg10
I01
sbs(I-4
I-3
tp70
g2
(g12
g4
Ntp71
Rp72
(dp73
g8
I0
sg10
I01
sbs(I-1
I-2
tp74
g2
(g3
g4
Ntp75
Rp76
(dp77
g8
I0
sg9
I1
sg10
I01
sbs(I2
I2
tp78
g2
(g3
g4
Ntp79
Rp80
(dp81
g8
I0
sg9
I1
sg10
I01
sbs(I6
I0
tp82
g2
(g12
g4
Ntp83
Rp84
(dp85
g8
I0
sg10
I01
sbs(I4
I-4
tp86
g2
(g3
g4
Ntp87
Rp88
(dp89
g8
I0
sg9
I1
sg10
I01
sbs(I1
I-4
tp90
g2
(g3
g4
Ntp91
Rp92
(dp93
g8
I0
sg9
I1
sg10
I01
sbs(I0
I-3
tp94
g2
(g3
g4
Ntp95
Rp96
(dp97
g8
I1
sg9
I-1
sg10
I01
sbs(I0
I1
tp98
g2
(g3
g4
Ntp99
Rp100
(dp101
g8
I0
sg9
I1
sg10
I01
sbs(I3
I1
tp102
g2
(g3
g4
Ntp103
Rp104
(dp105
g8
I0
sg9
I1
sg10
I01
sbs(I-1
I-1
tp106
g2
(g3
g4
Ntp107
Rp108
(dp109
g8
I1
sg9
I-1
sg10
I01
sbs(I6
I-1
tp110
g2
(g12
g4
Ntp111
Rp112
(dp113
g8
I0
sg10
I01
sbs(I-4
I1
tp114
g2
(g12
g4
Ntp115
Rp116
(dp117
g8
I0
sg10
I01
sbs(I-2
I4
tp118
g2
(g12
g4
Ntp119
Rp120
(dp121
g8
I0
sg10
I01
sbs(I-3
I4
tp122
g2
(g12
g4
Ntp123
Rp124
(dp125
g8
I0
sg10
I01
sbs(I5
I-2
tp126
g2
(g3
g4
Ntp127
Rp128
(dp129
g8
I0
sg9
I1
sg10
I01
sbs(I3
I-3
tp130
g2
(g3
g4
Ntp131
Rp132
(dp133
g8
I0
sg9
I1
sg10
I01
sbs(I2
I1
tp134
g2
(g3
g4
Ntp135
Rp136
(dp137
g8
I0
sg9
I1
sg10
I01
sbs(I5
I-5
tp138
g2
(g12
g4
Ntp139
Rp140
(dp141
g8
I0
sg10
I01
sbs(I6
I-5
tp142
g2
(g12
g4
Ntp143
Rp144
(dp145
g8
I0
sg10
I01
sbs(I5
I1
tp146
g2
(g3
g4
Ntp147
Rp148
(dp149
g8
I0
sg9
I1
sg10
I01
sbs(I6
I-2
tp150
g2
(g12
g4
Ntp151
Rp152
(dp153
g8
I0
sg10
I01
sbs(I4
I-1
tp154
g2
(g3
g4
Ntp155
Rp156
(dp157
g8
I0
sg9
I1
sg10
I01
sbs(I-2
I1
tp158
g2
(g3
g4
Ntp159
Rp160
(dp161
g8
I0
sg9
I1
sg10
I01
sbs(I1
I-2
tp162
g2
(g3
g4
Ntp163
Rp164
(dp165
g8
I1
sg9
I-1
sg10
I01
sbs(I-2
I-1
tp166
g2
(g3
g4
Ntp167
Rp168
(dp169
g8
I1
sg9
I-1
sg10
I01
sbs(I4
I0
tp170
g2
(g3
g4
Ntp171
Rp172
(dp173
g8
I1
sg9
I-1
sg10
I01
sbs(I4
I1
tp174
g2
(g3
g4
Ntp175
Rp176
(dp177
g8
I1
sg9
I-1
sg10
I01
sbs(I5
I-1
tp178
g2
(g3
g4
Ntp179
Rp180
(dp181
g8
I0
sg9
I1
sg10
I01
sbs(I6
I4
tp182
g2
(g12
g4
Ntp183
Rp184
(dp185
g8
I0
sg10
I01
sbs(I5
I4
tp186
g2
(g12
g4
Ntp187
Rp188
(dp189
g8
I0
sg10
I01
sbs(I2
I-2
tp190
g2
(g3
g4
Ntp191
Rp192
(dp193
g8
I1
sg9
I-1
sg10
I01
sbs(I-2
I2
tp194
g2
(g3
g4
Ntp195
Rp196
(dp197
g8
I0
sg9
I1
sg10
I01
sbs(I-1
I4
tp198
g2
(g12
g4
Ntp199
Rp200
(dp201
g8
I0
sg10
I01
sbs(I1
I0
tp202
g2
(g3
g4
Ntp203
Rp204
(dp205
g8
I0
sg9
I1
sg10
I01
sbs(I-3
I-5
tp206
g2
(g12
g4
Ntp207
Rp208
(dp209
g8
I0
sg10
I01
sbs(I-1
I-5
tp210
g2
(g12
g4
Ntp211
Rp212
(dp213
g8
I0
sg10
I01
sbs(I-4
I-2
tp214
g2
(g12
g4
Ntp215
Rp216
(dp217
g8
I0
sg10
I01
sbs(I6
I1
tp218
g2
(g12
g4
Ntp219
Rp220
(dp221
g8
I0
sg10
I01
sbs(I3
I-1
tp222
g2
(g3
g4
Ntp223
Rp224
(dp225
g8
I1
sg9
I-1
sg10
I01
sbs(I0
I-1
tp226
g2
(g3
g4
Ntp227
Rp228
(dp229
g8
I0
sg9
I1
sg10
I01
sbs(I0
I2
tp230
g2
(g3
g4
Ntp231
Rp232
(dp233
g8
I1
sg9
I-1
sg10
I01
sbs(I3
I0
tp234
g2
(g3
g4
Ntp235
Rp236
(dp237
g8
I1
sg9
I-1
sg10
I01
sbs(I-4
I-1
tp238
g2
(g12
g4
Ntp239
Rp240
(dp241
g8
I0
sg10
I01
sbs(I-4
I2
tp242
g2
(g12
g4
Ntp243
Rp244
(dp245
g8
I0
sg10
I01
sbs(I6
I2
tp246
g2
(g12
g4
Ntp247
Rp248
(dp249
g8
I0
sg10
I01
sbs(I1
I-1
tp250
g2
(g3
g4
Ntp251
Rp252
(dp253
g8
I0
sg9
I1
sg10
I01
sbs(I0
I-5
tp254
g2
(g12
g4
Ntp255
Rp256
(dp257
g8
I0
sg10
I01
sbs(I2
I-4
tp258
g2
(g3
g4
Ntp259
Rp260
(dp261
g8
I1
sg9
I-1
sg10
I01
sbs(I5
I0
tp262
g2
(g3
g4
Ntp263
Rp264
(dp265
g8
I1
sg9
I-1
sg10
I01
sbs(I-2
I-5
tp266
g2
(g12
g4
Ntp267
Rp268
(dp269
g8
I0
sg10
I01
sbs(I1
I4
tp270
g2
(g12
g4
Ntp271
Rp272
(dp273
g8
I0
sg10
I01
sbs(I-1
I-3
tp274
g2
(g3
g4
Ntp275
Rp276
(dp277
g8
I1
sg9
I-1
sg10
I01
sbs(I4
I2
tp278
g2
(g3
g4
Ntp279
Rp280
(dp281
g8
I0
sg9
I1
sg10
I01
sbs(I5
I-3
tp282
g2
(g3
g4
Ntp283
Rp284
(dp285
g8
I0
sg9
I1
sg10
I01
sbs(I5
I3
tp286
g2
(cookoobah.core
Exit
p287
g4
Ntp288
Rp289
(dp290
g8
I0
sg10
I01
sg45
I00
sbs(I-4
I4
tp291
g2
(g12
g4
Ntp292
Rp293
(dp294
g8
I0
sg10
I01
sbs(I3
I4
tp295
g2
(g12
g4
Ntp296
Rp297
(dp298
g8
I0
sg10
I01
sbs(I2
I4
tp299
g2
(g12
g4
Ntp300
Rp301
(dp302
g8
I0
sg10
I01
sbs(I-2
I-4
tp303
g2
(g3
g4
Ntp304
Rp305
(dp306
g8
I0
sg9
I1
sg10
I01
sbs(I-3
I-4
tp307
g2
(cookoobah.core
Launcher
p308
g4
Ntp309
Rp310
(dp311
g8
I1
sS'direction'
p312
(I0
I1
tp313
sg10
I01
sbs(I3
I-2
tp314
g2
(g3
g4
Ntp315
Rp316
(dp317
g8
I0
sg9
I1
sg10
I01
sbs(I1
I2
tp318
g2
(g3
g4
Ntp319
Rp320
(dp321
g8
I1
sg9
I-1
sg10
I01
sbs(I2
I-1
tp322
g2
(g3
g4
Ntp323
Rp324
(dp325
g8
I1
sg9
I-1
sg10
I01
sbs(I-1
I-4
tp326
g2
(g3
g4
Ntp327
Rp328
(dp329
g8
I0
sg9
I1
sg10
I01
sbs(I6
I-4
tp330
g2
(g12
g4
Ntp331
Rp332
(dp333
g8
I0
sg10
I01
sbs(I-4
I-4
tp334
g2
(g12
g4
Ntp335
Rp336
(dp337
g8
I0
sg10
I01
sbs(I-4
I3
tp338
g2
(g12
g4
Ntp339
Rp340
(dp341
g8
I0
sg10
I01
sbs(I4
I-2
tp342
g2
(g3
g4
Ntp343
Rp344
(dp345
g8
I1
sg9
I-1
sg10
I01
sbs(I6
I3
tp346
g2
(g12
g4
Ntp347
Rp348
(dp349
g8
I0
sg10
I01
sbs(I2
I-3
tp350
g2
(g3
g4
Ntp351
Rp352
(dp353
g8
I0
sg9
I1
sg10
I01
sbs(I1
I-3
tp354
g2
(g3
g4
Ntp355
Rp356
(dp357
g8
I1
sg9
I-1
sg10
I01
sbs(I0
I-4
tp358
g2
(g3
g4
Ntp359
Rp360
(dp361
g8
I1
sg9
I-1
sg10
I01
sbs(I0
I0
tp362
g2
(g3
g4
Ntp363
Rp364
(dp365
g8
I0
sg9
I1
sg10
I01
sbs(I-4
I-5
tp366
g2
(g12
g4
Ntp367
Rp368
(dp369
g8
I0
sg10
I01
sbs(I-1
I1
tp370
g2
(g3
g4
Ntp371
Rp372
(dp373
g8
I0
sg9
I1
sg10
I01
sbs(I-2
I-2
tp374
g2
(g3
g4
Ntp375
Rp376
(dp377
g8
I0
sg9
I1
sg10
I01
sbs(I-4
I0
tp378
g2
(g12
g4
Ntp379
Rp380
(dp381
g8
I0
sg10
I01
sbs(I2
I-5
tp382
g2
(g12
g4
Ntp383
Rp384
(dp385
g8
I0
sg10
I01
sbs(I3
I-5
tp386
g2
(g12
g4
Ntp387
Rp388
(dp389
g8
I0
sg10
I01
sbs(I-3
I-3
tp390
Ns(I2
I0
tp391
g2
(g3
g4
Ntp392
Rp393
(dp394
g8
I1
sg9
I-1
sg10
I01
sbs(I4
I3
tp395
Ns(I5
I-4
tp396
g2
(g3
g4
Ntp397
Rp398
(dp399
g8
I1
sg9
I-1
sg10
I01
sbs(I5
I2
tp400
g2
(g3
g4
Ntp401
Rp402
(dp403
g8
I0
sg9
I1
sg10
I01
sbs.