(dp0
(I-4
I5
tp1
ccopy_reg
_reconstructor
p2
(cookoobah.core
Wall
p3
c__builtin__
object
p4
Ntp5
Rp6
(dp7
S'all_states_idx'
p8
I0
sS'locked'
p9
I01
sbs(I-2
I2
tp10
g2
(cookoobah.core
FlipFlop
p11
g4
Ntp12
Rp13
(dp14
g8
I0
sg9
I01
sS'is_on'
p15
I00
sbs(I-10
I2
tp16
g2
(cookoobah.core
Launcher
p17
g4
Ntp18
Rp19
(dp20
g8
I0
sS'direction'
p21
(I1
I0
tp22
sg9
I01
sbs(I1
I4
tp23
g2
(cookoobah.core
Exit
p24
g4
Ntp25
Rp26
(dp27
g8
I0
sg9
I01
sg15
I00
sbs(I-2
I5
tp28
g2
(g3
g4
Ntp29
Rp30
(dp31
g8
I0
sg9
I01
sbs(I-11
I1
tp32
g2
(g3
g4
Ntp33
Rp34
(dp35
g8
I0
sg9
I01
sbs(I-8
I5
tp36
g2
(g3
g4
Ntp37
Rp38
(dp39
g8
I0
sg9
I01
sbs(I-4
I2
tp40
g2
(g11
g4
Ntp41
Rp42
(dp43
g8
I0
sg9
I01
sg15
I00
sbs(I-11
I5
tp44
g2
(g3
g4
Ntp45
Rp46
(dp47
g8
I0
sg9
I01
sbs(I-1
I5
tp48
g2
(g3
g4
Ntp49
Rp50
(dp51
g8
I0
sg9
I01
sbs(I-5
I5
tp52
g2
(g3
g4
Ntp53
Rp54
(dp55
g8
I0
sg9
I01
sbs(I-8
I1
tp56
g2
(g3
g4
Ntp57
Rp58
(dp59
g8
I0
sg9
I01
sbs(I2
I5
tp60
g2
(g3
g4
Ntp61
Rp62
(dp63
g8
I0
sg9
I01
sbs(I1
I2
tp64
g2
(cookoobah.core
Mirror
p65
g4
Ntp66
Rp67
(dp68
g8
I0
sS'slope'
p69
I1
sg9
I00
sbs(I-2
I1
tp70
g2
(g3
g4
Ntp71
Rp72
(dp73
g8
I0
sg9
I01
sbs(I-5
I1
tp74
g2
(g3
g4
Ntp75
Rp76
(dp77
g8
I0
sg9
I01
sbs(I1
I5
tp78
g2
(g3
g4
Ntp79
Rp80
(dp81
g8
I0
sg9
I01
sbs(I-11
I4
tp82
g2
(g3
g4
Ntp83
Rp84
(dp85
g8
I0
sg9
I01
sbs(I-3
I2
tp86
g2
(g11
g4
Ntp87
Rp88
(dp89
g8
I0
sg9
I01
sg15
I00
sbs(I-8
I2
tp90
g2
(g11
g4
Ntp91
Rp92
(dp93
g8
I0
sg9
I01
sg15
I00
sbs(I-9
I1
tp94
g2
(g3
g4
Ntp95
Rp96
(dp97
g8
I0
sg9
I01
sbs(I1
I1
tp98
g2
(g3
g4
Ntp99
Rp100
(dp101
g8
I0
sg9
I01
sbs(I-9
I5
tp102
g2
(g3
g4
Ntp103
Rp104
(dp105
g8
I0
sg9
I01
sbs(I-6
I1
tp106
g2
(g3
g4
Ntp107
Rp108
(dp109
g8
I0
sg9
I01
sbs(I-1
I2
tp110
g2
(g11
g4
Ntp111
Rp112
(dp113
g8
I0
sg9
I01
sg15
I00
sbs(I-1
I1
tp114
g2
(g3
g4
Ntp115
Rp116
(dp117
g8
I0
sg9
I01
sbs(I-10
I5
tp118
g2
(g3
g4
Ntp119
Rp120
(dp121
g8
I0
sg9
I01
sbs(I-11
I3
tp122
g2
(g3
g4
Ntp123
Rp124
(dp125
g8
I0
sg9
I01
sbs(I-3
I1
tp126
g2
(g3
g4
Ntp127
Rp128
(dp129
g8
I0
sg9
I01
sbs(I-6
I5
tp130
g2
(g3
g4
Ntp131
Rp132
(dp133
g8
I0
sg9
I01
sbs(I2
I3
tp134
g2
(g3
g4
Ntp135
Rp136
(dp137
g8
I0
sg9
I01
sbs(I2
I1
tp138
g2
(g3
g4
Ntp139
Rp140
(dp141
g8
I0
sg9
I01
sbs(I-7
I2
tp142
g2
(g11
g4
Ntp143
Rp144
(dp145
g8
I0
sg9
I01
sg15
I00
sbs(I-10
I1
tp146
g2
(g3
g4
Ntp147
Rp148
(dp149
g8
I0
sg9
I01
sbs(I-3
I5
tp150
g2
(g3
g4
Ntp151
Rp152
(dp153
g8
I0
sg9
I01
sbs(I0
I1
tp154
g2
(g3
g4
Ntp155
Rp156
(dp157
g8
I0
sg9
I01
sbs(I-7
I5
tp158
g2
(g3
g4
Ntp159
Rp160
(dp161
g8
I0
sg9
I01
sbs(I-11
I2
tp162
g2
(g3
g4
Ntp163
Rp164
(dp165
g8
I0
sg9
I01
sbs(I2
I2
tp166
g2
(g3
g4
Ntp167
Rp168
(dp169
g8
I0
sg9
I01
sbs(I-6
I2
tp170
g2
(g11
g4
Ntp171
Rp172
(dp173
g8
I0
sg9
I01
sg15
I00
sbs(I-4
I1
tp174
g2
(g3
g4
Ntp175
Rp176
(dp177
g8
I0
sg9
I01
sbs(I-7
I1
tp178
g2
(g3
g4
Ntp179
Rp180
(dp181
g8
I0
sg9
I01
sbs(I0
I5
tp182
g2
(g3
g4
Ntp183
Rp184
(dp185
g8
I0
sg9
I01
sbs(I-5
I2
tp186
g2
(g11
g4
Ntp187
Rp188
(dp189
g8
I0
sg9
I01
sg15
I00
sbs(I2
I4
tp190
g2
(g3
g4
Ntp191
Rp192
(dp193
g8
I0
sg9
I01
sbs.