(dp0
(I4
I-3
tp1
ccopy_reg
_reconstructor
p2
(cookoobah.core
Wall
p3
c__builtin__
object
p4
Ntp5
Rp6
(dp7
S'all_states_idx'
p8
I0
sS'locked'
p9
I01
sbs(I-9
I-1
tp10
g2
(cookoobah.core
Mirror
p11
g4
Ntp12
Rp13
(dp14
g8
I0
sS'slope'
p15
I1
sg9
I00
sbs(I2
I-4
tp16
g2
(g3
g4
Ntp17
Rp18
(dp19
g8
I0
sg9
I01
sbs(I-8
I-4
tp20
g2
(g3
g4
Ntp21
Rp22
(dp23
g8
I0
sg9
I01
sbs(I-4
I3
tp24
g2
(g3
g4
Ntp25
Rp26
(dp27
g8
I0
sg9
I01
sbs(I2
I-1
tp28
g2
(cookoobah.core
FlipFlop
p29
g4
Ntp30
Rp31
(dp32
g8
I0
sg9
I01
sS'is_on'
p33
I00
sbs(I-1
I0
tp34
g2
(cookoobah.core
OneWay
p35
g4
Ntp36
Rp37
(dp38
g8
I1
sS'direction'
p39
(I0
I1
tp40
sg9
I01
sbs(I-10
I3
tp41
g2
(g3
g4
Ntp42
Rp43
(dp44
g8
I0
sg9
I01
sbs(I-9
I-2
tp45
g2
(g29
g4
Ntp46
Rp47
(dp48
g8
I0
sg9
I01
sg33
I00
sbs(I-5
I-5
tp49
g2
(g11
g4
Ntp50
Rp51
(dp52
g8
I0
sg15
I1
sg9
I00
sbs(I-10
I-5
tp53
g2
(g3
g4
Ntp54
Rp55
(dp56
g8
I0
sg9
I01
sbs(I-3
I-2
tp57
g2
(g3
g4
Ntp58
Rp59
(dp60
g8
I0
sg9
I01
sbs(I0
I4
tp61
g2
(g3
g4
Ntp62
Rp63
(dp64
g8
I0
sg9
I01
sbs(I3
I2
tp65
g2
(g3
g4
Ntp66
Rp67
(dp68
g8
I0
sg9
I01
sbs(I-1
I-6
tp69
g2
(g3
g4
Ntp70
Rp71
(dp72
g8
I0
sg9
I01
sbs(I-6
I1
tp73
g2
(g3
g4
Ntp74
Rp75
(dp76
g8
I0
sg9
I01
sbs(I-4
I-3
tp77
g2
(g3
g4
Ntp78
Rp79
(dp80
g8
I0
sg9
I01
sbs(I-2
I-2
tp81
g2
(g3
g4
Ntp82
Rp83
(dp84
g8
I0
sg9
I01
sbs(I-2
I-1
tp85
g2
(g35
g4
Ntp86
Rp87
(dp88
g8
I0
sg39
(I1
I0
tp89
sg9
I01
sbs(I-6
I-4
tp90
g2
(g3
g4
Ntp91
Rp92
(dp93
g8
I0
sg9
I01
sbs(I-7
I-5
tp94
g2
(g29
g4
Ntp95
Rp96
(dp97
g8
I0
sg9
I01
sg33
I00
sbs(I1
I-4
tp98
g2
(g3
g4
Ntp99
Rp100
(dp101
g8
I0
sg9
I01
sbs(I0
I-3
tp102
g2
(g3
g4
Ntp103
Rp104
(dp105
g8
I0
sg9
I01
sbs(I0
I1
tp106
g2
(g3
g4
Ntp107
Rp108
(dp109
g8
I0
sg9
I01
sbs(I2
I2
tp110
g2
(g3
g4
Ntp111
Rp112
(dp113
g8
I0
sg9
I01
sbs(I-6
I2
tp114
g2
(g3
g4
Ntp115
Rp116
(dp117
g8
I0
sg9
I01
sbs(I-1
I3
tp118
g2
(g11
g4
Ntp119
Rp120
(dp121
g8
I0
sg15
I1
sg9
I00
sbs(I-6
I-1
tp122
g2
(g35
g4
Ntp123
Rp124
(dp125
g8
I0
sg39
g89
sg9
I01
sbs(I-4
I1
tp126
g2
(g3
g4
Ntp127
Rp128
(dp129
g8
I0
sg9
I01
sbs(I-1
I4
tp130
g2
(g3
g4
Ntp131
Rp132
(dp133
g8
I0
sg9
I01
sbs(I3
I-6
tp134
g2
(g3
g4
Ntp135
Rp136
(dp137
g8
I0
sg9
I01
sbs(I0
I-6
tp138
g2
(g3
g4
Ntp139
Rp140
(dp141
g8
I0
sg9
I01
sbs(I-2
I-3
tp142
g2
(g3
g4
Ntp143
Rp144
(dp145
g8
I0
sg9
I01
sbs(I-7
I0
tp146
g2
(g3
g4
Ntp147
Rp148
(dp149
g8
I0
sg9
I01
sbs(I-9
I-6
tp150
g2
(g3
g4
Ntp151
Rp152
(dp153
g8
I0
sg9
I01
sbs(I4
I-1
tp154
g2
(g3
g4
Ntp155
Rp156
(dp157
g8
I0
sg9
I01
sbs(I-7
I-4
tp158
g2
(g3
g4
Ntp159
Rp160
(dp161
g8
I0
sg9
I01
sbs(I-2
I1
tp162
g2
(g3
g4
Ntp163
Rp164
(dp165
g8
I0
sg9
I01
sbs(I-8
I-3
tp166
g2
(g3
g4
Ntp167
Rp168
(dp169
g8
I0
sg9
I01
sbs(I-9
I3
tp170
g2
(cookoobah.core
Launcher
p171
g4
Ntp172
Rp173
(dp174
g8
I0
sg39
g89
sg9
I01
sbs(I1
I-6
tp175
g2
(g3
g4
Ntp176
Rp177
(dp178
g8
I0
sg9
I01
sbs(I-8
I2
tp179
g2
(g3
g4
Ntp180
Rp181
(dp182
g8
I0
sg9
I01
sbs(I-1
I-2
tp183
g2
(g35
g4
Ntp184
Rp185
(dp186
g8
I1
sg39
g40
sg9
I01
sbs(I-5
I0
tp187
g2
(g35
g4
Ntp188
Rp189
(dp190
g8
I3
sg39
(I0
I-1
tp191
sg9
I01
sbs(I-5
I-6
tp192
g2
(g3
g4
Ntp193
Rp194
(dp195
g8
I0
sg9
I01
sbs(I2
I-2
tp196
g2
(g3
g4
Ntp197
Rp198
(dp199
g8
I0
sg9
I01
sbs(I-2
I2
tp200
g2
(g3
g4
Ntp201
Rp202
(dp203
g8
I0
sg9
I01
sbs(I-8
I-6
tp204
g2
(g3
g4
Ntp205
Rp206
(dp207
g8
I0
sg9
I01
sbs(I1
I0
tp208
g2
(g3
g4
Ntp209
Rp210
(dp211
g8
I0
sg9
I01
sbs(I-2
I-5
tp212
g2
(g3
g4
Ntp213
Rp214
(dp215
g8
I0
sg9
I01
sbs(I-4
I-1
tp216
g2
(g35
g4
Ntp217
Rp218
(dp219
g8
I0
sg39
g89
sg9
I01
sbs(I-6
I-3
tp220
g2
(g3
g4
Ntp221
Rp222
(dp223
g8
I0
sg9
I01
sbs(I3
I-1
tp224
g2
(g11
g4
Ntp225
Rp226
(dp227
g8
I1
sg15
I-1
sg9
I00
sbs(I-7
I-6
tp228
g2
(g3
g4
Ntp229
Rp230
(dp231
g8
I0
sg9
I01
sbs(I0
I-1
tp232
g2
(g35
g4
Ntp233
Rp234
(dp235
g8
I0
sg39
g89
sg9
I01
sbs(I0
I2
tp236
g2
(g3
g4
Ntp237
Rp238
(dp239
g8
I0
sg9
I01
sbs(I-7
I4
tp240
g2
(g3
g4
Ntp241
Rp242
(dp243
g8
I0
sg9
I01
sbs(I3
I0
tp244
g2
(g3
g4
Ntp245
Rp246
(dp247
g8
I0
sg9
I01
sbs(I-4
I0
tp248
g2
(g3
g4
Ntp249
Rp250
(dp251
g8
I0
sg9
I01
sbs(I-6
I3
tp252
g2
(g29
g4
Ntp253
Rp254
(dp255
g8
I0
sg9
I01
sg33
I00
sbs(I-9
I2
tp256
g2
(g3
g4
Ntp257
Rp258
(dp259
g8
I0
sg9
I01
sbs(I-4
I2
tp260
g2
(g3
g4
Ntp261
Rp262
(dp263
g8
I0
sg9
I01
sbs(I-6
I-2
tp264
g2
(g3
g4
Ntp265
Rp266
(dp267
g8
I0
sg9
I01
sbs(I1
I-2
tp268
g2
(g3
g4
Ntp269
Rp270
(dp271
g8
I0
sg9
I01
sbs(I-2
I0
tp272
g2
(g3
g4
Ntp273
Rp274
(dp275
g8
I0
sg9
I01
sbs(I-5
I4
tp276
g2
(g3
g4
Ntp277
Rp278
(dp279
g8
I0
sg9
I01
sbs(I-6
I4
tp280
g2
(g3
g4
Ntp281
Rp282
(dp283
g8
I0
sg9
I01
sbs(I-5
I-2
tp284
g2
(g35
g4
Ntp285
Rp286
(dp287
g8
I3
sg39
g191
sg9
I01
sbs(I-10
I-4
tp288
g2
(g3
g4
Ntp289
Rp290
(dp291
g8
I0
sg9
I01
sbs(I2
I-6
tp292
g2
(g3
g4
Ntp293
Rp294
(dp295
g8
I0
sg9
I01
sbs(I-8
I-2
tp296
g2
(g3
g4
Ntp297
Rp298
(dp299
g8
I0
sg9
I01
sbs(I1
I4
tp300
g2
(g3
g4
Ntp301
Rp302
(dp303
g8
I0
sg9
I01
sbs(I-1
I-3
tp304
g2
(g29
g4
Ntp305
Rp306
(dp307
g8
I0
sg9
I01
sg33
I00
sbs(I-7
I2
tp308
g2
(g3
g4
Ntp309
Rp310
(dp311
g8
I0
sg9
I01
sbs(I-5
I3
tp312
g2
(g11
g4
Ntp313
Rp314
(dp315
g8
I1
sg15
I-1
sg9
I00
sbs(I-4
I-2
tp316
g2
(g3
g4
Ntp317
Rp318
(dp319
g8
I0
sg9
I01
sbs(I-9
I4
tp320
g2
(g3
g4
Ntp321
Rp322
(dp323
g8
I0
sg9
I01
sbs(I4
I-4
tp324
g2
(g3
g4
Ntp325
Rp326
(dp327
g8
I0
sg9
I01
sbs(I-7
I-2
tp328
g2
(g3
g4
Ntp329
Rp330
(dp331
g8
I0
sg9
I01
sbs(I-2
I3
tp332
g2
(g3
g4
Ntp333
Rp334
(dp335
g8
I0
sg9
I01
sbs(I-8
I0
tp336
g2
(g3
g4
Ntp337
Rp338
(dp339
g8
I0
sg9
I01
sbs(I3
I4
tp340
g2
(g3
g4
Ntp341
Rp342
(dp343
g8
I0
sg9
I01
sbs(I2
I4
tp344
g2
(g3
g4
Ntp345
Rp346
(dp347
g8
I0
sg9
I01
sbs(I-6
I-6
tp348
g2
(g3
g4
Ntp349
Rp350
(dp351
g8
I0
sg9
I01
sbs(I-3
I0
tp352
g2
(g3
g4
Ntp353
Rp354
(dp355
g8
I0
sg9
I01
sbs(I0
I3
tp356
g2
(g29
g4
Ntp357
Rp358
(dp359
g8
I0
sg9
I01
sg33
I00
sbs(I1
I2
tp360
g2
(g3
g4
Ntp361
Rp362
(dp363
g8
I0
sg9
I01
sbs(I3
I3
tp364
g2
(cookoobah.core
Exit
p365
g4
Ntp366
Rp367
(dp368
g8
I0
sg9
I01
sg33
I00
sbs(I-2
I-4
tp369
g2
(g3
g4
Ntp370
Rp371
(dp372
g8
I0
sg9
I01
sbs(I-6
I0
tp373
g2
(g3
g4
Ntp374
Rp375
(dp376
g8
I0
sg9
I01
sbs(I-4
I-4
tp377
g2
(g3
g4
Ntp378
Rp379
(dp380
g8
I0
sg9
I01
sbs(I4
I-5
tp381
g2
(g3
g4
Ntp382
Rp383
(dp384
g8
I0
sg9
I01
sbs(I4
I-2
tp385
g2
(g3
g4
Ntp386
Rp387
(dp388
g8
I0
sg9
I01
sbs(I3
I-4
tp389
g2
(g29
g4
Ntp390
Rp391
(dp392
g8
I0
sg9
I01
sg33
I00
sbs(I0
I-4
tp393
g2
(g3
g4
Ntp394
Rp395
(dp396
g8
I0
sg9
I01
sbs(I0
I0
tp397
g2
(g3
g4
Ntp398
Rp399
(dp400
g8
I0
sg9
I01
sbs(I-4
I-5
tp401
g2
(g3
g4
Ntp402
Rp403
(dp404
g8
I0
sg9
I01
sbs(I-1
I-5
tp405
g2
(g11
g4
Ntp406
Rp407
(dp408
g8
I1
sg15
I-1
sg9
I00
sbs(I2
I-3
tp409
g2
(g3
g4
Ntp410
Rp411
(dp412
g8
I0
sg9
I01
sbs(I-9
I0
tp413
g2
(g3
g4
Ntp414
Rp415
(dp416
g8
I0
sg9
I01
sbs(I-10
I-3
tp417
g2
(g3
g4
Ntp418
Rp419
(dp420
g8
I0
sg9
I01
sbs(I0
I-2
tp421
g2
(g3
g4
Ntp422
Rp423
(dp424
g8
I0
sg9
I01
sbs(I3
I-5
tp425
g2
(g35
g4
Ntp426
Rp427
(dp428
g8
I2
sg39
(I-1
I0
tp429
sg9
I01
sbs(I-8
I4
tp430
g2
(g3
g4
Ntp431
Rp432
(dp433
g8
I0
sg9
I01
sbs(I2
I0
tp434
g2
(g3
g4
Ntp435
Rp436
(dp437
g8
I0
sg9
I01
sbs(I4
I3
tp438
g2
(g3
g4
Ntp439
Rp440
(dp441
g8
I0
sg9
I01
sbs(I-9
I-5
tp442
g2
(g35
g4
Ntp443
Rp444
(dp445
g8
I1
sg39
g40
sg9
I01
sbs(I-10
I-1
tp446
g2
(g3
g4
Ntp447
Rp448
(dp449
g8
I0
sg9
I01
sbs(I-5
I-4
tp450
g2
(g29
g4
Ntp451
Rp452
(dp453
g8
I0
sg9
I01
sg33
I00
sbs(I-10
I-2
tp454
g2
(g3
g4
Ntp455
Rp456
(dp457
g8
I0
sg9
I01
sbs.