(dp0
(I7
I3
tp1
ccopy_reg
_reconstructor
p2
(cookoobah.core
Wall
p3
c__builtin__
object
p4
Ntp5
Rp6
(dp7
S'all_states_idx'
p8
I0
sS'locked'
p9
I01
sbs(I2
I-4
tp10
g2
(g3
g4
Ntp11
Rp12
(dp13
g8
I0
sg9
I01
sbs(I-3
I8
tp14
g2
(g3
g4
Ntp15
Rp16
(dp17
g8
I0
sg9
I00
sbs(I-7
I-3
tp18
g2
(g3
g4
Ntp19
Rp20
(dp21
g8
I0
sg9
I01
sbs(I0
I7
tp22
g2
(g3
g4
Ntp23
Rp24
(dp25
g8
I0
sg9
I01
sbs(I7
I-4
tp26
g2
(g3
g4
Ntp27
Rp28
(dp29
g8
I0
sg9
I01
sbs(I1
I6
tp30
g2
(cookoobah.core
Mirror
p31
g4
Ntp32
Rp33
(dp34
g8
I0
sS'slope'
p35
I1
sg9
I00
sbs(I3
I7
tp36
g2
(g3
g4
Ntp37
Rp38
(dp39
g8
I0
sg9
I01
sbs(I8
I5
tp40
g2
(g3
g4
Ntp41
Rp42
(dp43
g8
I0
sg9
I01
sbs(I6
I7
tp44
g2
(g3
g4
Ntp45
Rp46
(dp47
g8
I0
sg9
I01
sbs(I7
I6
tp48
g2
(g31
g4
Ntp49
Rp50
(dp51
g8
I1
sg35
I-1
sg9
I00
sbs(I0
I4
tp52
g2
(g3
g4
Ntp53
Rp54
(dp55
g8
I0
sg9
I01
sbs(I-3
I-4
tp56
g2
(g3
g4
Ntp57
Rp58
(dp59
g8
I0
sg9
I01
sbs(I8
I2
tp60
g2
(cookoobah.core
Exit
p61
g4
Ntp62
Rp63
(dp64
g8
I0
sg9
I01
sS'is_on'
p65
I00
sbs(I-6
I1
tp66
g2
(cookoobah.core
Launcher
p67
g4
Ntp68
Rp69
(dp70
g8
I0
sS'direction'
p71
(I1
I0
tp72
sg9
I01
sbs(I9
I3
tp73
g2
(g3
g4
Ntp74
Rp75
(dp76
g8
I0
sg9
I01
sbs(I-6
I-4
tp77
g2
(g3
g4
Ntp78
Rp79
(dp80
g8
I0
sg9
I01
sbs(I-3
I1
tp81
g2
(cookoobah.core
Portal
p82
g4
Ntp83
Rp84
(dp85
g8
I0
sg9
I01
sbs(I-4
I4
tp86
g2
(g82
g4
Ntp87
Rp88
(dp89
g8
I0
sg9
I01
sbs(I1
I-4
tp90
g2
(g3
g4
Ntp91
Rp92
(dp93
g8
I0
sg9
I01
sbs(I-7
I-1
tp94
g2
(g3
g4
Ntp95
Rp96
(dp97
g8
I0
sg9
I01
sbs(I-7
I5
tp98
g2
(g3
g4
Ntp99
Rp100
(dp101
g8
I0
sg9
I01
sbs(I3
I1
tp102
g2
(g31
g4
Ntp103
Rp104
(dp105
g8
I1
sg35
I-1
sg9
I00
sbs(I6
I-1
tp106
g2
(g31
g4
Ntp107
Rp108
(dp109
g8
I1
sg35
I-1
sg9
I00
sbs(I6
I2
tp110
g2
(g31
g4
Ntp111
Rp112
(dp113
g8
I0
sg35
I1
sg9
I00
sbs(I8
I-4
tp114
g2
(g3
g4
Ntp115
Rp116
(dp117
g8
I0
sg9
I01
sbs(I-2
I4
tp118
g2
(cookoobah.core
FlipFlop
p119
g4
Ntp120
Rp121
(dp122
g8
I0
sg9
I01
sg65
I00
sbs(I5
I-1
tp123
g2
(g3
g4
Ntp124
Rp125
(dp126
g8
I0
sg9
I01
sbs(I2
I1
tp127
g2
(g119
g4
Ntp128
Rp129
(dp130
g8
I0
sg9
I01
sg65
I00
sbs(I-7
I0
tp131
g2
(g3
g4
Ntp132
Rp133
(dp134
g8
I0
sg9
I01
sbs(I-6
I7
tp135
g2
(g3
g4
Ntp136
Rp137
(dp138
g8
I0
sg9
I01
sbs(I5
I1
tp139
g2
(g3
g4
Ntp140
Rp141
(dp142
g8
I0
sg9
I01
sbs(I10
I3
tp143
g2
(g3
g4
Ntp144
Rp145
(dp146
g8
I0
sg9
I01
sbs(I-7
I-4
tp147
g2
(g3
g4
Ntp148
Rp149
(dp150
g8
I0
sg9
I01
sbs(I-3
I7
tp151
g2
(g3
g4
Ntp152
Rp153
(dp154
g8
I0
sg9
I01
sbs(I8
I6
tp155
g2
(g3
g4
Ntp156
Rp157
(dp158
g8
I0
sg9
I01
sbs(I-7
I3
tp159
g2
(g3
g4
Ntp160
Rp161
(dp162
g8
I0
sg9
I01
sbs(I10
I-4
tp163
g2
(g3
g4
Ntp164
Rp165
(dp166
g8
I0
sg9
I01
sbs(I5
I-2
tp167
g2
(g3
g4
Ntp168
Rp169
(dp170
g8
I0
sg9
I01
sbs(I6
I4
tp171
g2
(g82
g4
Ntp172
Rp173
(dp174
g8
I0
sg9
I01
sbs(I0
I5
tp175
g2
(g3
g4
Ntp176
Rp177
(dp178
g8
I0
sg9
I01
sbs(I2
I7
tp179
g2
(g3
g4
Ntp180
Rp181
(dp182
g8
I0
sg9
I01
sbs(I8
I3
tp183
g2
(g3
g4
Ntp184
Rp185
(dp186
g8
I0
sg9
I01
sbs(I5
I7
tp187
g2
(g3
g4
Ntp188
Rp189
(dp190
g8
I0
sg9
I01
sbs(I-2
I8
tp191
g2
(g3
g4
Ntp192
Rp193
(dp194
g8
I0
sg9
I00
sbs(I3
I-2
tp195
g2
(g119
g4
Ntp196
Rp197
(dp198
g8
I0
sg9
I01
sg65
I00
sbs(I7
I4
tp199
g2
(g31
g4
Ntp200
Rp201
(dp202
g8
I0
sg35
I1
sg9
I00
sbs(I0
I-1
tp203
g2
(g119
g4
Ntp204
Rp205
(dp206
g8
I0
sg9
I01
sg65
I00
sbs(I1
I3
tp207
g2
(g3
g4
Ntp208
Rp209
(dp210
g8
I0
sg9
I01
sbs(I-7
I4
tp211
g2
(g3
g4
Ntp212
Rp213
(dp214
g8
I0
sg9
I01
sbs(I-3
I-2
tp215
g2
(g119
g4
Ntp216
Rp217
(dp218
g8
I0
sg9
I01
sg65
I00
sbs(I9
I-4
tp219
g2
(g3
g4
Ntp220
Rp221
(dp222
g8
I0
sg9
I01
sbs(I10
I-2
tp223
g2
(g3
g4
Ntp224
Rp225
(dp226
g8
I0
sg9
I01
sbs(I3
I-3
tp227
g2
(g31
g4
Ntp228
Rp229
(dp230
g8
I0
sg35
I1
sg9
I00
sbs(I-1
I7
tp231
g2
(g3
g4
Ntp232
Rp233
(dp234
g8
I0
sg9
I01
sbs(I-7
I7
tp235
g2
(g3
g4
Ntp236
Rp237
(dp238
g8
I0
sg9
I01
sbs(I5
I0
tp239
g2
(g3
g4
Ntp240
Rp241
(dp242
g8
I0
sg9
I01
sbs(I10
I0
tp243
g2
(g3
g4
Ntp244
Rp245
(dp246
g8
I0
sg9
I01
sbs(I-4
I7
tp247
g2
(g3
g4
Ntp248
Rp249
(dp250
g8
I0
sg9
I01
sbs(I1
I4
tp251
g2
(g31
g4
Ntp252
Rp253
(dp254
g8
I1
sg35
I-1
sg9
I00
sbs(I2
I3
tp255
g2
(g3
g4
Ntp256
Rp257
(dp258
g8
I0
sg9
I01
sbs(I8
I7
tp259
g2
(g3
g4
Ntp260
Rp261
(dp262
g8
I0
sg9
I01
sbs(I-7
I2
tp263
g2
(g3
g4
Ntp264
Rp265
(dp266
g8
I0
sg9
I01
sbs(I10
I-3
tp267
g2
(g3
g4
Ntp268
Rp269
(dp270
g8
I0
sg9
I01
sbs(I5
I-3
tp271
g2
(g3
g4
Ntp272
Rp273
(dp274
g8
I0
sg9
I01
sbs(I5
I3
tp275
g2
(g3
g4
Ntp276
Rp277
(dp278
g8
I0
sg9
I01
sbs(I4
I-4
tp279
g2
(g3
g4
Ntp280
Rp281
(dp282
g8
I0
sg9
I01
sbs(I-7
I-2
tp283
g2
(g3
g4
Ntp284
Rp285
(dp286
g8
I0
sg9
I01
sbs(I7
I-1
tp287
g2
(g119
g4
Ntp288
Rp289
(dp290
g8
I0
sg9
I01
sg65
I00
sbs(I0
I6
tp291
g2
(g3
g4
Ntp292
Rp293
(dp294
g8
I0
sg9
I01
sbs(I1
I7
tp295
g2
(g3
g4
Ntp296
Rp297
(dp298
g8
I0
sg9
I01
sbs(I2
I4
tp299
g2
(g119
g4
Ntp300
Rp301
(dp302
g8
I0
sg9
I01
sg65
I00
sbs(I8
I4
tp303
g2
(g3
g4
Ntp304
Rp305
(dp306
g8
I0
sg9
I01
sbs(I4
I7
tp307
g2
(g3
g4
Ntp308
Rp309
(dp310
g8
I0
sg9
I01
sbs(I10
I-1
tp311
g2
(g3
g4
Ntp312
Rp313
(dp314
g8
I0
sg9
I01
sbs(I6
I6
tp315
g2
(g119
g4
Ntp316
Rp317
(dp318
g8
I0
sg9
I01
sg65
I00
sbs(I7
I7
tp319
g2
(g3
g4
Ntp320
Rp321
(dp322
g8
I0
sg9
I01
sbs(I-1
I8
tp323
g2
(g3
g4
Ntp324
Rp325
(dp326
g8
I0
sg9
I00
sbs(I0
I3
tp327
g2
(g3
g4
Ntp328
Rp329
(dp330
g8
I0
sg9
I01
sbs(I3
I3
tp331
g2
(g3
g4
Ntp332
Rp333
(dp334
g8
I0
sg9
I01
sbs(I-1
I-4
tp335
g2
(g3
g4
Ntp336
Rp337
(dp338
g8
I0
sg9
I01
sbs(I6
I-4
tp339
g2
(g3
g4
Ntp340
Rp341
(dp342
g8
I0
sg9
I01
sbs(I-4
I-4
tp343
g2
(g3
g4
Ntp344
Rp345
(dp346
g8
I0
sg9
I01
sbs(I6
I3
tp347
g2
(g3
g4
Ntp348
Rp349
(dp350
g8
I0
sg9
I01
sbs(I3
I-4
tp351
g2
(g3
g4
Ntp352
Rp353
(dp354
g8
I0
sg9
I01
sbs(I0
I-4
tp355
g2
(g3
g4
Ntp356
Rp357
(dp358
g8
I0
sg9
I01
sbs(I-7
I6
tp359
g2
(g3
g4
Ntp360
Rp361
(dp362
g8
I0
sg9
I01
sbs(I-5
I7
tp363
g2
(g3
g4
Ntp364
Rp365
(dp366
g8
I0
sg9
I01
sbs(I9
I-1
tp367
g2
(g82
g4
Ntp368
Rp369
(dp370
g8
I0
sg9
I01
sbs(I10
I1
tp371
g2
(g3
g4
Ntp372
Rp373
(dp374
g8
I0
sg9
I01
sbs(I-2
I7
tp375
g2
(g3
g4
Ntp376
Rp377
(dp378
g8
I0
sg9
I01
sbs(I-3
I-3
tp379
g2
(g31
g4
Ntp380
Rp381
(dp382
g8
I1
sg35
I-1
sg9
I00
sbs(I5
I2
tp383
g2
(g3
g4
Ntp384
Rp385
(dp386
g8
I0
sg9
I01
sbs(I-2
I-4
tp387
g2
(g3
g4
Ntp388
Rp389
(dp390
g8
I0
sg9
I01
sbs(I-7
I1
tp391
g2
(g3
g4
Ntp392
Rp393
(dp394
g8
I0
sg9
I01
sbs(I4
I3
tp395
g2
(g3
g4
Ntp396
Rp397
(dp398
g8
I0
sg9
I01
sbs(I5
I-4
tp399
g2
(g3
g4
Ntp400
Rp401
(dp402
g8
I0
sg9
I01
sbs(I-5
I-4
tp403
g2
(g3
g4
Ntp404
Rp405
(dp406
g8
I0
sg9
I01
sbs(I10
I2
tp407
g2
(g3
g4
Ntp408
Rp409
(dp410
g8
I0
sg9
I01
sbs.