(dp0
(I-7
I-3
tp1
ccopy_reg
_reconstructor
p2
(cookoobah.core
Trap
p3
c__builtin__
object
p4
Ntp5
Rp6
(dp7
S'all_states_idx'
p8
I0
sS'locked'
p9
I01
sbs(I2
I-4
tp10
g2
(g3
g4
Ntp11
Rp12
(dp13
g8
I0
sg9
I01
sbs(I-7
I4
tp14
g2
(g3
g4
Ntp15
Rp16
(dp17
g8
I0
sg9
I01
sbs(I-3
I-2
tp18
g2
(cookoobah.core
FlipFlop
p19
g4
Ntp20
Rp21
(dp22
g8
I0
sg9
I01
sS'is_on'
p23
I00
sbs(I3
I2
tp24
g2
(g3
g4
Ntp25
Rp26
(dp27
g8
I0
sg9
I01
sbs(I-3
I6
tp28
g2
(g3
g4
Ntp29
Rp30
(dp31
g8
I0
sg9
I01
sbs(I-7
I0
tp32
g2
(g3
g4
Ntp33
Rp34
(dp35
g8
I0
sg9
I01
sbs(I1
I6
tp36
g2
(g3
g4
Ntp37
Rp38
(dp39
g8
I0
sg9
I01
sbs(I3
I-2
tp40
g2
(g3
g4
Ntp41
Rp42
(dp43
g8
I0
sg9
I01
sbs(I3
I-3
tp44
g2
(g3
g4
Ntp45
Rp46
(dp47
g8
I0
sg9
I01
sbs(I-8
I1
tp48
g2
(g3
g4
Ntp49
Rp50
(dp51
g8
I0
sg9
I01
sbs(I1
I-2
tp52
g2
(cookoobah.core
FlipFlopMirror
p53
g4
Ntp54
Rp55
(dp56
g8
I0
sS'slope'
p57
I1
sg9
I00
sbs(I-4
I6
tp58
g2
(g3
g4
Ntp59
Rp60
(dp61
g8
I0
sg9
I01
sbs(I1
I2
tp62
g2
(g19
g4
Ntp63
Rp64
(dp65
g8
I0
sg9
I01
sg23
I00
sbs(I-2
I1
tp66
g2
(g53
g4
Ntp67
Rp68
(dp69
g8
I0
sg57
I1
sg9
I00
sbs(I3
I3
tp70
g2
(g3
g4
Ntp71
Rp72
(dp73
g8
I0
sg9
I01
sbs(I-1
I-4
tp74
g2
(g3
g4
Ntp75
Rp76
(dp77
g8
I0
sg9
I01
sbs(I-4
I-4
tp78
g2
(g3
g4
Ntp79
Rp80
(dp81
g8
I0
sg9
I01
sbs(I3
I0
tp82
g2
(g3
g4
Ntp83
Rp84
(dp85
g8
I0
sg9
I01
sbs(I-5
I4
tp86
g2
(g53
g4
Ntp87
Rp88
(dp89
g8
I0
sg57
I1
sg9
I00
sbs(I-5
I-2
tp90
g2
(g53
g4
Ntp91
Rp92
(dp93
g8
I1
sg57
I-1
sg9
I00
sbs(I-1
I-2
tp94
g2
(g19
g4
Ntp95
Rp96
(dp97
g8
I0
sg9
I01
sg23
I00
sbs(I-7
I3
tp98
g2
(g3
g4
Ntp99
Rp100
(dp101
g8
I0
sg9
I01
sbs(I4
I1
tp102
g2
(g3
g4
Ntp103
Rp104
(dp105
g8
I0
sg9
I01
sbs(I-2
I6
tp106
g2
(g3
g4
Ntp107
Rp108
(dp109
g8
I0
sg9
I01
sbs(I-5
I0
tp110
g2
(g19
g4
Ntp111
Rp112
(dp113
g8
I0
sg9
I01
sg23
I00
sbs(I-1
I6
tp114
g2
(g3
g4
Ntp115
Rp116
(dp117
g8
I0
sg9
I01
sbs(I-3
I-4
tp118
g2
(g3
g4
Ntp119
Rp120
(dp121
g8
I0
sg9
I01
sbs(I2
I6
tp122
g2
(g3
g4
Ntp123
Rp124
(dp125
g8
I0
sg9
I01
sbs(I-6
I-4
tp126
g2
(g3
g4
Ntp127
Rp128
(dp129
g8
I0
sg9
I01
sbs(I1
I4
tp130
g2
(g53
g4
Ntp131
Rp132
(dp133
g8
I1
sg57
I-1
sg9
I00
sbs(I0
I-4
tp134
g2
(g3
g4
Ntp135
Rp136
(dp137
g8
I0
sg9
I01
sbs(I1
I-4
tp138
g2
(g3
g4
Ntp139
Rp140
(dp141
g8
I0
sg9
I01
sbs(I-2
I4
tp142
g2
(g53
g4
Ntp143
Rp144
(dp145
g8
I0
sg57
I1
sg9
I00
sbs(I-7
I2
tp146
g2
(g3
g4
Ntp147
Rp148
(dp149
g8
I0
sg9
I01
sbs(I-7
I-1
tp150
g2
(g3
g4
Ntp151
Rp152
(dp153
g8
I0
sg9
I01
sbs(I1
I0
tp154
g2
(g19
g4
Ntp155
Rp156
(dp157
g8
I0
sg9
I01
sg23
I00
sbs(I-5
I2
tp158
g2
(g19
g4
Ntp159
Rp160
(dp161
g8
I0
sg9
I01
sg23
I00
sbs(I3
I5
tp162
g2
(g3
g4
Ntp163
Rp164
(dp165
g8
I0
sg9
I01
sbs(I-7
I-2
tp166
g2
(g3
g4
Ntp167
Rp168
(dp169
g8
I0
sg9
I01
sbs(I-5
I-4
tp170
g2
(g3
g4
Ntp171
Rp172
(dp173
g8
I0
sg9
I01
sbs(I3
I1
tp174
g2
(cookoobah.core
Exit
p175
g4
Ntp176
Rp177
(dp178
g8
I0
sg9
I01
sg23
I00
sbs(I-5
I6
tp179
g2
(g3
g4
Ntp180
Rp181
(dp182
g8
I0
sg9
I01
sbs(I0
I6
tp183
g2
(g3
g4
Ntp184
Rp185
(dp186
g8
I0
sg9
I01
sbs(I-2
I-4
tp187
g2
(g3
g4
Ntp188
Rp189
(dp190
g8
I0
sg9
I01
sbs(I-7
I1
tp191
g2
(cookoobah.core
Launcher
p192
g4
Ntp193
Rp194
(dp195
g8
I0
sS'direction'
p196
(I1
I0
tp197
sg9
I01
sbs(I-7
I5
tp198
g2
(g3
g4
Ntp199
Rp200
(dp201
g8
I0
sg9
I01
sbs(I-1
I4
tp202
g2
(g19
g4
Ntp203
Rp204
(dp205
g8
I0
sg9
I01
sg23
I00
sbs(I-3
I4
tp206
g2
(g19
g4
Ntp207
Rp208
(dp209
g8
I0
sg9
I01
sg23
I00
sbs(I-6
I6
tp210
g2
(g3
g4
Ntp211
Rp212
(dp213
g8
I0
sg9
I01
sbs(I3
I4
tp214
g2
(g3
g4
Ntp215
Rp216
(dp217
g8
I0
sg9
I01
sbs(I3
I-1
tp218
g2
(g3
g4
Ntp219
Rp220
(dp221
g8
I0
sg9
I01
sbs.