(dp0
(I4
I-3
tp1
ccopy_reg
_reconstructor
p2
(cookoobah.core
Wall
p3
c__builtin__
object
p4
Ntp5
Rp6
(dp7
S'all_states_idx'
p8
I0
sS'locked'
p9
I01
sbs(I5
I-1
tp10
g2
(g3
g4
Ntp11
Rp12
(dp13
g8
I0
sg9
I01
sbs(I1
I3
tp14
g2
(cookoobah.core
FlipFlop
p15
g4
Ntp16
Rp17
(dp18
g8
I0
sg9
I01
sS'is_on'
p19
I00
sbs(I-1
I0
tp20
g2
(g15
g4
Ntp21
Rp22
(dp23
g8
I0
sg9
I01
sg19
I00
sbs(I-1
I-3
tp24
g2
(cookoobah.core
Launcher
p25
g4
Ntp26
Rp27
(dp28
g8
I1
sS'direction'
p29
(I0
I1
tp30
sg9
I01
sbs(I3
I-3
tp31
g2
(g3
g4
Ntp32
Rp33
(dp34
g8
I0
sg9
I01
sbs(I5
I1
tp35
g2
(g3
g4
Ntp36
Rp37
(dp38
g8
I0
sg9
I01
sbs(I1
I-2
tp39
g2
(g15
g4
Ntp40
Rp41
(dp42
g8
I0
sg9
I01
sg19
I00
sbs(I-5
I-2
tp43
g2
(g3
g4
Ntp44
Rp45
(dp46
g8
I0
sg9
I01
sbs(I4
I0
tp47
g2
(g15
g4
Ntp48
Rp49
(dp50
g8
I0
sg9
I01
sg19
I00
sbs(I-1
I1
tp51
g2
(g15
g4
Ntp52
Rp53
(dp54
g8
I0
sg9
I01
sg19
I00
sbs(I-5
I1
tp55
g2
(g3
g4
Ntp56
Rp57
(dp58
g8
I0
sg9
I01
sbs(I-3
I-3
tp59
g2
(g3
g4
Ntp60
Rp61
(dp62
g8
I0
sg9
I01
sbs(I-2
I-4
tp63
g2
(g3
g4
Ntp64
Rp65
(dp66
g8
I0
sg9
I01
sbs(I4
I4
tp67
g2
(g3
g4
Ntp68
Rp69
(dp70
g8
I0
sg9
I01
sbs(I-5
I0
tp71
g2
(g3
g4
Ntp72
Rp73
(dp74
g8
I0
sg9
I01
sbs(I-5
I3
tp75
g2
(g3
g4
Ntp76
Rp77
(dp78
g8
I0
sg9
I01
sbs(I-5
I4
tp79
g2
(g3
g4
Ntp80
Rp81
(dp82
g8
I0
sg9
I01
sbs(I5
I0
tp83
g2
(g3
g4
Ntp84
Rp85
(dp86
g8
I0
sg9
I01
sbs(I0
I4
tp87
g2
(g3
g4
Ntp88
Rp89
(dp90
g8
I0
sg9
I01
sbs(I1
I-3
tp91
g2
(g3
g4
Ntp92
Rp93
(dp94
g8
I0
sg9
I01
sbs(I5
I3
tp95
g2
(g3
g4
Ntp96
Rp97
(dp98
g8
I0
sg9
I01
sbs(I4
I1
tp99
g2
(g15
g4
Ntp100
Rp101
(dp102
g8
I0
sg9
I01
sg19
I00
sbs(I0
I-4
tp103
g2
(g3
g4
Ntp104
Rp105
(dp106
g8
I0
sg9
I01
sbs(I5
I-2
tp107
g2
(g3
g4
Ntp108
Rp109
(dp110
g8
I0
sg9
I01
sbs(I-5
I2
tp111
g2
(g3
g4
Ntp112
Rp113
(dp114
g8
I0
sg9
I01
sbs(I5
I4
tp115
g2
(g3
g4
Ntp116
Rp117
(dp118
g8
I0
sg9
I01
sbs(I-5
I-1
tp119
g2
(g3
g4
Ntp120
Rp121
(dp122
g8
I0
sg9
I01
sbs(I-4
I-3
tp123
g2
(g3
g4
Ntp124
Rp125
(dp126
g8
I0
sg9
I01
sbs(I2
I-2
tp127
g2
(g15
g4
Ntp128
Rp129
(dp130
g8
I0
sg9
I01
sg19
I00
sbs(I2
I-3
tp131
g2
(g3
g4
Ntp132
Rp133
(dp134
g8
I0
sg9
I01
sbs(I1
I4
tp135
g2
(g3
g4
Ntp136
Rp137
(dp138
g8
I0
sg9
I01
sbs(I2
I3
tp139
g2
(g15
g4
Ntp140
Rp141
(dp142
g8
I0
sg9
I01
sg19
I00
sbs(I-2
I-3
tp143
g2
(g3
g4
Ntp144
Rp145
(dp146
g8
I0
sg9
I01
sbs(I-1
I4
tp147
g2
(g3
g4
Ntp148
Rp149
(dp150
g8
I0
sg9
I01
sbs(I0
I-3
tp151
g2
(g3
g4
Ntp152
Rp153
(dp154
g8
I0
sg9
I01
sbs(I5
I-3
tp155
g2
(g3
g4
Ntp156
Rp157
(dp158
g8
I0
sg9
I01
sbs(I-5
I-3
tp159
g2
(g3
g4
Ntp160
Rp161
(dp162
g8
I0
sg9
I01
sbs(I-4
I4
tp163
g2
(g3
g4
Ntp164
Rp165
(dp166
g8
I0
sg9
I01
sbs(I-4
I-2
tp167
g2
(cookoobah.core
Exit
p168
g4
Ntp169
Rp170
(dp171
g8
I0
sg9
I01
sg19
I00
sbs(I-1
I3
tp172
g2
(cookoobah.core
Mirror
p173
g4
Ntp174
Rp175
(dp176
g8
I0
sS'slope'
p177
I1
sg9
I01
sbs(I3
I4
tp178
g2
(g3
g4
Ntp179
Rp180
(dp181
g8
I0
sg9
I01
sbs(I4
I-2
tp182
g2
(g173
g4
Ntp183
Rp184
(dp185
g8
I0
sg177
I1
sg9
I01
sbs(I-1
I-4
tp186
g2
(g3
g4
Ntp187
Rp188
(dp189
g8
I0
sg9
I01
sbs(I4
I3
tp190
g2
(g173
g4
Ntp191
Rp192
(dp193
g8
I1
sg177
I-1
sg9
I01
sbs(I-2
I4
tp194
g2
(g3
g4
Ntp195
Rp196
(dp197
g8
I0
sg9
I01
sbs(I-3
I4
tp198
g2
(g3
g4
Ntp199
Rp200
(dp201
g8
I0
sg9
I01
sbs(I5
I2
tp202
g2
(g3
g4
Ntp203
Rp204
(dp205
g8
I0
sg9
I01
sbs(I2
I4
tp206
g2
(g3
g4
Ntp207
Rp208
(dp209
g8
I0
sg9
I01
sbs.