(dp0
(I4
I-3
tp1
ccopy_reg
_reconstructor
p2
(cookoobah.core
Swamp
p3
c__builtin__
object
p4
Ntp5
Rp6
(dp7
S'all_states_idx'
p8
I0
sS'locked'
p9
I01
sbs(I-4
I5
tp10
g2
(cookoobah.core
Wall
p11
g4
Ntp12
Rp13
(dp14
g8
I0
sg9
I01
sbs(I-1
I-6
tp15
g2
(g11
g4
Ntp16
Rp17
(dp18
g8
I0
sg9
I01
sbs(I-1
I0
tp19
g2
(cookoobah.core
FlipFlop
p20
g4
Ntp21
Rp22
(dp23
g8
I0
sg9
I01
sS'is_on'
p24
I00
sbs(I7
I-6
tp25
g2
(g11
g4
Ntp26
Rp27
(dp28
g8
I0
sg9
I01
sbs(I7
I3
tp29
g2
(g11
g4
Ntp30
Rp31
(dp32
g8
I0
sg9
I01
sbs(I-3
I-2
tp33
g2
(g11
g4
Ntp34
Rp35
(dp36
g8
I0
sg9
I01
sbs(I1
I-5
tp37
g2
(g11
g4
Ntp38
Rp39
(dp40
g8
I0
sg9
I01
sbs(I-1
I-3
tp41
g2
(g3
g4
Ntp42
Rp43
(dp44
g8
I0
sg9
I01
sbs(I4
I-6
tp45
g2
(g11
g4
Ntp46
Rp47
(dp48
g8
I0
sg9
I01
sbs(I7
I-2
tp49
g2
(g11
g4
Ntp50
Rp51
(dp52
g8
I0
sg9
I01
sbs(I6
I2
tp53
g2
(cookoobah.core
Mirror
p54
g4
Ntp55
Rp56
(dp57
g8
I0
sS'slope'
p58
I1
sg9
I00
sbs(I-1
I-5
tp59
g2
(cookoobah.core
Launcher
p60
g4
Ntp61
Rp62
(dp63
g8
I1
sS'direction'
p64
(I0
I1
tp65
sg9
I01
sbs(I4
I-5
tp66
g2
(g54
g4
Ntp67
Rp68
(dp69
g8
I1
sg58
I-1
sg9
I00
sbs(I-2
I5
tp70
g2
(g11
g4
Ntp71
Rp72
(dp73
g8
I0
sg9
I01
sbs(I6
I-5
tp74
g2
(g54
g4
Ntp75
Rp76
(dp77
g8
I0
sg58
I1
sg9
I00
sbs(I5
I1
tp78
g2
(g11
g4
Ntp79
Rp80
(dp81
g8
I0
sg9
I01
sbs(I4
I-1
tp82
g2
(g20
g4
Ntp83
Rp84
(dp85
g8
I0
sg9
I01
sg24
I00
sbs(I7
I2
tp86
g2
(g11
g4
Ntp87
Rp88
(dp89
g8
I0
sg9
I01
sbs(I-2
I0
tp90
g2
(g11
g4
Ntp91
Rp92
(dp93
g8
I0
sg9
I01
sbs(I1
I2
tp94
g2
(g20
g4
Ntp95
Rp96
(dp97
g8
I0
sg9
I01
sg24
I00
sbs(I2
I-3
tp98
g2
(g20
g4
Ntp99
Rp100
(dp101
g8
I0
sg9
I01
sg24
I00
sbs(I5
I5
tp102
g2
(g11
g4
Ntp103
Rp104
(dp105
g8
I0
sg9
I01
sbs(I7
I-4
tp106
g2
(g11
g4
Ntp107
Rp108
(dp109
g8
I0
sg9
I01
sbs(I-3
I4
tp110
g2
(g54
g4
Ntp111
Rp112
(dp113
g8
I0
sg58
I1
sg9
I00
sbs(I4
I4
tp114
g2
(g54
g4
Ntp115
Rp116
(dp117
g8
I0
sg58
I1
sg9
I00
sbs(I5
I-2
tp118
g2
(g11
g4
Ntp119
Rp120
(dp121
g8
I0
sg9
I01
sbs(I-4
I3
tp122
g2
(g11
g4
Ntp123
Rp124
(dp125
g8
I0
sg9
I01
sbs(I-3
I5
tp126
g2
(g11
g4
Ntp127
Rp128
(dp129
g8
I0
sg9
I01
sbs(I5
I-6
tp130
g2
(g11
g4
Ntp131
Rp132
(dp133
g8
I0
sg9
I01
sbs(I5
I0
tp134
g2
(g11
g4
Ntp135
Rp136
(dp137
g8
I0
sg9
I01
sbs(I-2
I-1
tp138
g2
(g11
g4
Ntp139
Rp140
(dp141
g8
I0
sg9
I01
sbs(I0
I4
tp142
g2
(g11
g4
Ntp143
Rp144
(dp145
g8
I0
sg9
I01
sbs(I-3
I-3
tp146
g2
(g11
g4
Ntp147
Rp148
(dp149
g8
I0
sg9
I01
sbs(I7
I-3
tp150
g2
(g11
g4
Ntp151
Rp152
(dp153
g8
I0
sg9
I01
sbs(I0
I-5
tp154
g2
(g11
g4
Ntp155
Rp156
(dp157
g8
I0
sg9
I01
sbs(I5
I-1
tp158
g2
(g11
g4
Ntp159
Rp160
(dp161
g8
I0
sg9
I01
sbs(I6
I4
tp162
g2
(g54
g4
Ntp163
Rp164
(dp165
g8
I1
sg58
I-1
sg9
I00
sbs(I-3
I-4
tp166
g2
(g11
g4
Ntp167
Rp168
(dp169
g8
I0
sg9
I01
sbs(I-2
I-6
tp170
g2
(g11
g4
Ntp171
Rp172
(dp173
g8
I0
sg9
I01
sbs(I6
I-3
tp174
g2
(g54
g4
Ntp175
Rp176
(dp177
g8
I1
sg58
I-1
sg9
I00
sbs(I7
I1
tp178
g2
(g11
g4
Ntp179
Rp180
(dp181
g8
I0
sg9
I01
sbs(I4
I5
tp182
g2
(g11
g4
Ntp183
Rp184
(dp185
g8
I0
sg9
I01
sbs(I2
I2
tp186
g2
(g20
g4
Ntp187
Rp188
(dp189
g8
I0
sg9
I01
sg24
I00
sbs(I-1
I2
tp190
g2
(g3
g4
Ntp191
Rp192
(dp193
g8
I0
sg9
I01
sbs(I-2
I1
tp194
g2
(g11
g4
Ntp195
Rp196
(dp197
g8
I0
sg9
I01
sbs(I1
I4
tp198
g2
(g11
g4
Ntp199
Rp200
(dp201
g8
I0
sg9
I01
sbs(I-2
I-2
tp202
g2
(g11
g4
Ntp203
Rp204
(dp205
g8
I0
sg9
I01
sbs(I-3
I1
tp206
g2
(g11
g4
Ntp207
Rp208
(dp209
g8
I0
sg9
I01
sbs(I7
I5
tp210
g2
(g11
g4
Ntp211
Rp212
(dp213
g8
I0
sg9
I01
sbs(I0
I5
tp214
g2
(g11
g4
Ntp215
Rp216
(dp217
g8
I0
sg9
I01
sbs(I-2
I-3
tp218
g2
(cookoobah.core
Exit
p219
g4
Ntp220
Rp221
(dp222
g8
I0
sg9
I01
sg24
I00
sbs(I1
I-3
tp223
g2
(g20
g4
Ntp224
Rp225
(dp226
g8
I0
sg9
I01
sg24
I00
sbs(I4
I0
tp227
g2
(g20
g4
Ntp228
Rp229
(dp230
g8
I0
sg9
I01
sg24
I00
sbs(I4
I2
tp231
g2
(g3
g4
Ntp232
Rp233
(dp234
g8
I0
sg9
I01
sbs(I2
I-5
tp235
g2
(g11
g4
Ntp236
Rp237
(dp238
g8
I0
sg9
I01
sbs(I3
I-5
tp239
g2
(g11
g4
Ntp240
Rp241
(dp242
g8
I0
sg9
I01
sbs(I6
I5
tp243
g2
(g11
g4
Ntp244
Rp245
(dp246
g8
I0
sg9
I01
sbs(I5
I3
tp247
g2
(g11
g4
Ntp248
Rp249
(dp250
g8
I0
sg9
I01
sbs(I3
I5
tp251
g2
(g11
g4
Ntp252
Rp253
(dp254
g8
I0
sg9
I01
sbs(I-2
I-5
tp255
g2
(g11
g4
Ntp256
Rp257
(dp258
g8
I0
sg9
I01
sbs(I-1
I5
tp259
g2
(g11
g4
Ntp260
Rp261
(dp262
g8
I0
sg9
I01
sbs(I-4
I4
tp263
g2
(g11
g4
Ntp264
Rp265
(dp266
g8
I0
sg9
I01
sbs(I0
I-6
tp267
g2
(g11
g4
Ntp268
Rp269
(dp270
g8
I0
sg9
I01
sbs(I-4
I2
tp271
g2
(g11
g4
Ntp272
Rp273
(dp274
g8
I0
sg9
I01
sbs(I-2
I3
tp275
g2
(g11
g4
Ntp276
Rp277
(dp278
g8
I0
sg9
I01
sbs(I7
I-5
tp279
g2
(g11
g4
Ntp280
Rp281
(dp282
g8
I0
sg9
I01
sbs(I6
I1
tp283
g2
(g11
g4
Ntp284
Rp285
(dp286
g8
I0
sg9
I01
sbs(I-3
I2
tp287
g2
(g54
g4
Ntp288
Rp289
(dp290
g8
I1
sg58
I-1
sg9
I00
sbs(I-1
I-1
tp291
g2
(g20
g4
Ntp292
Rp293
(dp294
g8
I0
sg9
I01
sg24
I00
sbs(I3
I-6
tp295
g2
(g11
g4
Ntp296
Rp297
(dp298
g8
I0
sg9
I01
sbs(I6
I-2
tp299
g2
(g11
g4
Ntp300
Rp301
(dp302
g8
I0
sg9
I01
sbs(I7
I4
tp303
g2
(g11
g4
Ntp304
Rp305
(dp306
g8
I0
sg9
I01
sbs(I-2
I-4
tp307
g2
(g11
g4
Ntp308
Rp309
(dp310
g8
I0
sg9
I01
sbs(I-4
I1
tp311
g2
(g11
g4
Ntp312
Rp313
(dp314
g8
I0
sg9
I01
sbs(I-1
I4
tp315
g2
(g54
g4
Ntp316
Rp317
(dp318
g8
I1
sg58
I-1
sg9
I00
sbs(I5
I-4
tp319
g2
(g11
g4
Ntp320
Rp321
(dp322
g8
I0
sg9
I01
sbs(I6
I-6
tp323
g2
(g11
g4
Ntp324
Rp325
(dp326
g8
I0
sg9
I01
sbs(I3
I4
tp327
g2
(g11
g4
Ntp328
Rp329
(dp330
g8
I0
sg9
I01
sbs(I2
I4
tp331
g2
(g11
g4
Ntp332
Rp333
(dp334
g8
I0
sg9
I01
sbs.