(dp0
(I-4
I5
tp1
ccopy_reg
_reconstructor
p2
(cookoobah.core
Mirror
p3
c__builtin__
object
p4
Ntp5
Rp6
(dp7
S'all_states_idx'
p8
I0
sS'slope'
p9
I1
sS'locked'
p10
I00
sbs(I2
I-2
tp11
g2
(cookoobah.core
Exit
p12
g4
Ntp13
Rp14
(dp15
g8
I0
sg10
I01
sS'is_on'
p16
I00
sbs(I-5
I-1
tp17
g2
(cookoobah.core
Trap
p18
g4
Ntp19
Rp20
(dp21
g8
I0
sg10
I01
sbs(I-2
I0
tp22
g2
(cookoobah.core
FlipFlop
p23
g4
Ntp24
Rp25
(dp26
g8
I0
sg10
I01
sg16
I00
sbs(I3
I0
tp27
g2
(g18
g4
Ntp28
Rp29
(dp30
g8
I0
sg10
I01
sbs(I-1
I1
tp31
g2
(g18
g4
Ntp32
Rp33
(dp34
g8
I0
sg10
I01
sbs(I-5
I5
tp35
g2
(g18
g4
Ntp36
Rp37
(dp38
g8
I0
sg10
I01
sbs(I-2
I-3
tp39
g2
(cookoobah.core
Wall
p40
g4
Ntp41
Rp42
(dp43
g8
I0
sg10
I01
sbs(I2
I6
tp44
g2
(g40
g4
Ntp45
Rp46
(dp47
g8
I0
sg10
I01
sbs(I1
I6
tp48
g2
(g40
g4
Ntp49
Rp50
(dp51
g8
I0
sg10
I01
sbs(I3
I-1
tp52
g2
(g18
g4
Ntp53
Rp54
(dp55
g8
I0
sg10
I01
sbs(I-1
I2
tp56
g2
(g18
g4
Ntp57
Rp58
(dp59
g8
I0
sg10
I01
sbs(I3
I-3
tp60
g2
(g40
g4
Ntp61
Rp62
(dp63
g8
I0
sg10
I01
sbs(I0
I3
tp64
g2
(g23
g4
Ntp65
Rp66
(dp67
g8
I0
sg10
I01
sg16
I00
sbs(I2
I5
tp68
g2
(g3
g4
Ntp69
Rp70
(dp71
g8
I1
sg9
I-1
sg10
I00
sbs(I-1
I0
tp72
g2
(g18
g4
Ntp73
Rp74
(dp75
g8
I0
sg10
I01
sbs(I-1
I3
tp76
g2
(g18
g4
Ntp77
Rp78
(dp79
g8
I0
sg10
I01
sbs(I-2
I1
tp80
g2
(g23
g4
Ntp81
Rp82
(dp83
g8
I0
sg10
I01
sg16
I00
sbs(I-5
I1
tp84
g2
(g18
g4
Ntp85
Rp86
(dp87
g8
I0
sg10
I01
sbs(I3
I3
tp88
g2
(g18
g4
Ntp89
Rp90
(dp91
g8
I0
sg10
I01
sbs(I0
I6
tp92
g2
(g40
g4
Ntp93
Rp94
(dp95
g8
I0
sg10
I01
sbs(I-4
I6
tp96
g2
(g40
g4
Ntp97
Rp98
(dp99
g8
I0
sg10
I01
sbs(I-5
I4
tp100
g2
(g18
g4
Ntp101
Rp102
(dp103
g8
I0
sg10
I01
sbs(I3
I6
tp104
g2
(g40
g4
Ntp105
Rp106
(dp107
g8
I0
sg10
I01
sbs(I-1
I-1
tp108
g2
(g18
g4
Ntp109
Rp110
(dp111
g8
I0
sg10
I01
sbs(I-3
I-3
tp112
g2
(g40
g4
Ntp113
Rp114
(dp115
g8
I0
sg10
I01
sbs(I3
I5
tp116
g2
(g18
g4
Ntp117
Rp118
(dp119
g8
I0
sg10
I01
sbs(I-2
I6
tp120
g2
(g40
g4
Ntp121
Rp122
(dp123
g8
I0
sg10
I01
sbs(I-5
I0
tp124
g2
(g18
g4
Ntp125
Rp126
(dp127
g8
I0
sg10
I01
sbs(I0
I-2
tp128
g2
(g3
g4
Ntp129
Rp130
(dp131
g8
I0
sg9
I1
sg10
I00
sbs(I3
I2
tp132
g2
(g18
g4
Ntp133
Rp134
(dp135
g8
I0
sg10
I01
sbs(I0
I0
tp136
g2
(g23
g4
Ntp137
Rp138
(dp139
g8
I0
sg10
I01
sg16
I00
sbs(I-5
I-2
tp140
g2
(g18
g4
Ntp141
Rp142
(dp143
g8
I0
sg10
I01
sbs(I-4
I-3
tp144
g2
(g40
g4
Ntp145
Rp146
(dp147
g8
I0
sg10
I01
sbs(I-2
I2
tp148
g2
(g23
g4
Ntp149
Rp150
(dp151
g8
I0
sg10
I01
sg16
I00
sbs(I2
I-3
tp152
g2
(g40
g4
Ntp153
Rp154
(dp155
g8
I0
sg10
I01
sbs(I3
I-2
tp156
g2
(g18
g4
Ntp157
Rp158
(dp159
g8
I0
sg10
I01
sbs(I0
I5
tp160
g2
(g3
g4
Ntp161
Rp162
(dp163
g8
I0
sg9
I1
sg10
I00
sbs(I-1
I-3
tp164
g2
(g40
g4
Ntp165
Rp166
(dp167
g8
I0
sg10
I01
sbs(I1
I-3
tp168
g2
(g40
g4
Ntp169
Rp170
(dp171
g8
I0
sg10
I01
sbs(I0
I-3
tp172
g2
(g40
g4
Ntp173
Rp174
(dp175
g8
I0
sg10
I01
sbs(I-5
I3
tp176
g2
(g18
g4
Ntp177
Rp178
(dp179
g8
I0
sg10
I01
sbs(I-5
I-3
tp180
g2
(g40
g4
Ntp181
Rp182
(dp183
g8
I0
sg10
I01
sbs(I0
I1
tp184
g2
(g23
g4
Ntp185
Rp186
(dp187
g8
I0
sg10
I01
sg16
I00
sbs(I-2
I5
tp188
g2
(g3
g4
Ntp189
Rp190
(dp191
g8
I1
sg9
I-1
sg10
I00
sbs(I-4
I-2
tp192
g2
(cookoobah.core
Launcher
p193
g4
Ntp194
Rp195
(dp196
g8
I1
sS'direction'
p197
(I0
I1
tp198
sg10
I01
sbs(I-2
I3
tp199
g2
(g23
g4
Ntp200
Rp201
(dp202
g8
I0
sg10
I01
sg16
I00
sbs(I3
I1
tp203
g2
(g18
g4
Ntp204
Rp205
(dp206
g8
I0
sg10
I01
sbs(I-2
I-2
tp207
g2
(g3
g4
Ntp208
Rp209
(dp210
g8
I1
sg9
I-1
sg10
I00
sbs(I-5
I6
tp211
g2
(g40
g4
Ntp212
Rp213
(dp214
g8
I0
sg10
I01
sbs(I-1
I6
tp215
g2
(g40
g4
Ntp216
Rp217
(dp218
g8
I0
sg10
I01
sbs(I-1
I4
tp219
g2
(g18
g4
Ntp220
Rp221
(dp222
g8
I0
sg10
I01
sbs(I-5
I2
tp223
g2
(g18
g4
Ntp224
Rp225
(dp226
g8
I0
sg10
I01
sbs(I-3
I6
tp227
g2
(g40
g4
Ntp228
Rp229
(dp230
g8
I0
sg10
I01
sbs(I3
I4
tp231
g2
(g18
g4
Ntp232
Rp233
(dp234
g8
I0
sg10
I01
sbs(I0
I2
tp235
g2
(g23
g4
Ntp236
Rp237
(dp238
g8
I0
sg10
I01
sg16
I00
sbs.