(dp0
(I-9
I-2
tp1
ccopy_reg
_reconstructor
p2
(cookoobah.core
Wall
p3
c__builtin__
object
p4
Ntp5
Rp6
(dp7
S'all_states_idx'
p8
I0
sS'locked'
p9
I01
sbs(I-2
I0
tp10
g2
(g3
g4
Ntp11
Rp12
(dp13
g8
I0
sg9
I01
sbs(I-8
I-4
tp14
g2
(g3
g4
Ntp15
Rp16
(dp17
g8
I0
sg9
I01
sbs(I-1
I0
tp18
g2
(g3
g4
Ntp19
Rp20
(dp21
g8
I0
sg9
I01
sbs(I-9
I-1
tp22
g2
(g3
g4
Ntp23
Rp24
(dp25
g8
I0
sg9
I01
sbs(I-3
I-2
tp26
g2
(cookoobah.core
FlipFlop
p27
g4
Ntp28
Rp29
(dp30
g8
I0
sg9
I01
sS'is_on'
p31
I00
sbs(I0
I4
tp32
g2
(g3
g4
Ntp33
Rp34
(dp35
g8
I0
sg9
I01
sbs(I3
I-4
tp36
g2
(g3
g4
Ntp37
Rp38
(dp39
g8
I0
sg9
I01
sbs(I3
I2
tp40
g2
(g27
g4
Ntp41
Rp42
(dp43
g8
I0
sg9
I01
sg31
I00
sbs(I-6
I1
tp44
g2
(g3
g4
Ntp45
Rp46
(dp47
g8
I0
sg9
I01
sbs(I-9
I-3
tp48
g2
(g3
g4
Ntp49
Rp50
(dp51
g8
I0
sg9
I01
sbs(I6
I0
tp52
g2
(g3
g4
Ntp53
Rp54
(dp55
g8
I0
sg9
I01
sbs(I-4
I4
tp56
g2
(g3
g4
Ntp57
Rp58
(dp59
g8
I0
sg9
I01
sbs(I-9
I2
tp60
g2
(g3
g4
Ntp61
Rp62
(dp63
g8
I0
sg9
I01
sbs(I1
I-4
tp64
g2
(g3
g4
Ntp65
Rp66
(dp67
g8
I0
sg9
I01
sbs(I9
I3
tp68
g2
(g3
g4
Ntp69
Rp70
(dp71
g8
I0
sg9
I01
sbs(I6
I-2
tp72
g2
(cookoobah.core
Exit
p73
g4
Ntp74
Rp75
(dp76
g8
I0
sg9
I01
sg31
I00
sbs(I-9
I3
tp77
g2
(g3
g4
Ntp78
Rp79
(dp80
g8
I0
sg9
I01
sbs(I-6
I-1
tp81
g2
(g3
g4
Ntp82
Rp83
(dp84
g8
I0
sg9
I01
sbs(I8
I-4
tp85
g2
(g3
g4
Ntp86
Rp87
(dp88
g8
I0
sg9
I01
sbs(I-2
I4
tp89
g2
(g3
g4
Ntp90
Rp91
(dp92
g8
I0
sg9
I01
sbs(I-3
I4
tp93
g2
(g3
g4
Ntp94
Rp95
(dp96
g8
I0
sg9
I01
sbs(I9
I4
tp97
g2
(g3
g4
Ntp98
Rp99
(dp100
g8
I0
sg9
I01
sbs(I-6
I2
tp101
g2
(cookoobah.core
Portal
p102
g4
Ntp103
Rp104
(dp105
g8
I0
sg9
I01
sbs(I-7
I-4
tp106
g2
(g3
g4
Ntp107
Rp108
(dp109
g8
I0
sg9
I01
sbs(I9
I-3
tp110
g2
(g3
g4
Ntp111
Rp112
(dp113
g8
I0
sg9
I01
sbs(I9
I-1
tp114
g2
(g3
g4
Ntp115
Rp116
(dp117
g8
I0
sg9
I01
sbs(I-8
I2
tp118
g2
(cookoobah.core
Mirror
p119
g4
Ntp120
Rp121
(dp122
g8
I0
sS'slope'
p123
I1
sg9
I00
sbs(I-1
I-2
tp124
g2
(g27
g4
Ntp125
Rp126
(dp127
g8
I0
sg9
I01
sg31
I00
sbs(I4
I0
tp128
g2
(g3
g4
Ntp129
Rp130
(dp131
g8
I0
sg9
I01
sbs(I-5
I0
tp132
g2
(g3
g4
Ntp133
Rp134
(dp135
g8
I0
sg9
I01
sbs(I6
I4
tp136
g2
(g3
g4
Ntp137
Rp138
(dp139
g8
I0
sg9
I01
sbs(I5
I4
tp140
g2
(g3
g4
Ntp141
Rp142
(dp143
g8
I0
sg9
I01
sbs(I-1
I2
tp144
g2
(g27
g4
Ntp145
Rp146
(dp147
g8
I0
sg9
I01
sg31
I00
sbs(I9
I0
tp148
g2
(g3
g4
Ntp149
Rp150
(dp151
g8
I0
sg9
I01
sbs(I-1
I4
tp152
g2
(g3
g4
Ntp153
Rp154
(dp155
g8
I0
sg9
I01
sbs(I1
I0
tp156
g2
(g3
g4
Ntp157
Rp158
(dp159
g8
I0
sg9
I01
sbs(I9
I2
tp160
g2
(g3
g4
Ntp161
Rp162
(dp163
g8
I0
sg9
I01
sbs(I-6
I-3
tp164
g2
(g3
g4
Ntp165
Rp166
(dp167
g8
I0
sg9
I01
sbs(I3
I-2
tp168
g2
(g27
g4
Ntp169
Rp170
(dp171
g8
I0
sg9
I01
sg31
I00
sbs(I7
I4
tp172
g2
(g3
g4
Ntp173
Rp174
(dp175
g8
I0
sg9
I01
sbs(I-9
I0
tp176
g2
(g3
g4
Ntp177
Rp178
(dp179
g8
I0
sg9
I01
sbs(I-7
I4
tp180
g2
(g3
g4
Ntp181
Rp182
(dp183
g8
I0
sg9
I01
sbs(I3
I0
tp184
g2
(g3
g4
Ntp185
Rp186
(dp187
g8
I0
sg9
I01
sbs(I8
I0
tp188
g2
(g3
g4
Ntp189
Rp190
(dp191
g8
I0
sg9
I01
sbs(I-6
I3
tp192
g2
(g3
g4
Ntp193
Rp194
(dp195
g8
I0
sg9
I01
sbs(I9
I-4
tp196
g2
(g3
g4
Ntp197
Rp198
(dp199
g8
I0
sg9
I01
sbs(I6
I2
tp200
g2
(cookoobah.core
Launcher
p201
g4
Ntp202
Rp203
(dp204
g8
I2
sS'direction'
p205
(I-1
I0
tp206
sg9
I01
sbs(I-6
I-2
tp207
g2
(g102
g4
Ntp208
Rp209
(dp210
g8
I0
sg9
I01
sbs(I1
I-2
tp211
g2
(g27
g4
Ntp212
Rp213
(dp214
g8
I0
sg9
I01
sg31
I00
sbs(I2
I-4
tp215
g2
(g3
g4
Ntp216
Rp217
(dp218
g8
I0
sg9
I01
sbs(I-5
I4
tp219
g2
(g3
g4
Ntp220
Rp221
(dp222
g8
I0
sg9
I01
sbs(I-6
I4
tp223
g2
(g3
g4
Ntp224
Rp225
(dp226
g8
I0
sg9
I01
sbs(I5
I0
tp227
g2
(g3
g4
Ntp228
Rp229
(dp230
g8
I0
sg9
I01
sbs(I-9
I1
tp231
g2
(g3
g4
Ntp232
Rp233
(dp234
g8
I0
sg9
I01
sbs(I-8
I-2
tp235
g2
(g119
g4
Ntp236
Rp237
(dp238
g8
I1
sg123
I-1
sg9
I00
sbs(I1
I4
tp239
g2
(g3
g4
Ntp240
Rp241
(dp242
g8
I0
sg9
I01
sbs(I7
I-4
tp243
g2
(g3
g4
Ntp244
Rp245
(dp246
g8
I0
sg9
I01
sbs(I-9
I4
tp247
g2
(g3
g4
Ntp248
Rp249
(dp250
g8
I0
sg9
I01
sbs(I4
I-4
tp251
g2
(g3
g4
Ntp252
Rp253
(dp254
g8
I0
sg9
I01
sbs(I7
I0
tp255
g2
(g3
g4
Ntp256
Rp257
(dp258
g8
I0
sg9
I01
sbs(I-9
I-4
tp259
g2
(g3
g4
Ntp260
Rp261
(dp262
g8
I0
sg9
I01
sbs(I3
I4
tp263
g2
(g3
g4
Ntp264
Rp265
(dp266
g8
I0
sg9
I01
sbs(I2
I4
tp267
g2
(g3
g4
Ntp268
Rp269
(dp270
g8
I0
sg9
I01
sbs(I8
I4
tp271
g2
(g3
g4
Ntp272
Rp273
(dp274
g8
I0
sg9
I01
sbs(I2
I0
tp275
g2
(g3
g4
Ntp276
Rp277
(dp278
g8
I0
sg9
I01
sbs(I9
I1
tp279
g2
(g3
g4
Ntp280
Rp281
(dp282
g8
I0
sg9
I01
sbs(I-3
I-4
tp283
g2
(g3
g4
Ntp284
Rp285
(dp286
g8
I0
sg9
I01
sbs(I-3
I0
tp287
g2
(g3
g4
Ntp288
Rp289
(dp290
g8
I0
sg9
I01
sbs(I1
I2
tp291
g2
(g27
g4
Ntp292
Rp293
(dp294
g8
I0
sg9
I01
sg31
I00
sbs(I-1
I-4
tp295
g2
(g3
g4
Ntp296
Rp297
(dp298
g8
I0
sg9
I01
sbs(I6
I-4
tp299
g2
(g3
g4
Ntp300
Rp301
(dp302
g8
I0
sg9
I01
sbs(I4
I4
tp303
g2
(g3
g4
Ntp304
Rp305
(dp306
g8
I0
sg9
I01
sbs(I-4
I-4
tp307
g2
(g3
g4
Ntp308
Rp309
(dp310
g8
I0
sg9
I01
sbs(I-3
I2
tp311
g2
(g27
g4
Ntp312
Rp313
(dp314
g8
I0
sg9
I01
sg31
I00
sbs(I0
I-4
tp315
g2
(g3
g4
Ntp316
Rp317
(dp318
g8
I0
sg9
I01
sbs(I0
I0
tp319
g2
(g3
g4
Ntp320
Rp321
(dp322
g8
I0
sg9
I01
sbs(I-6
I-4
tp323
g2
(g3
g4
Ntp324
Rp325
(dp326
g8
I0
sg9
I01
sbs(I9
I-2
tp327
g2
(g3
g4
Ntp328
Rp329
(dp330
g8
I0
sg9
I01
sbs(I-4
I0
tp331
g2
(g3
g4
Ntp332
Rp333
(dp334
g8
I0
sg9
I01
sbs(I-8
I4
tp335
g2
(g3
g4
Ntp336
Rp337
(dp338
g8
I0
sg9
I01
sbs(I-2
I-4
tp339
g2
(g3
g4
Ntp340
Rp341
(dp342
g8
I0
sg9
I01
sbs(I-6
I0
tp343
g2
(g3
g4
Ntp344
Rp345
(dp346
g8
I0
sg9
I01
sbs(I5
I-4
tp347
g2
(g3
g4
Ntp348
Rp349
(dp350
g8
I0
sg9
I01
sbs(I-5
I-4
tp351
g2
(g3
g4
Ntp352
Rp353
(dp354
g8
I0
sg9
I01
sbs.