(dp0
(I-4
I5
tp1
ccopy_reg
_reconstructor
p2
(cookoobah.core
Wall
p3
c__builtin__
object
p4
Ntp5
Rp6
(dp7
S'all_states_idx'
p8
I0
sS'locked'
p9
I01
sbs(I-7
I-3
tp10
g2
(g3
g4
Ntp11
Rp12
(dp13
g8
I0
sg9
I01
sbs(I8
I-8
tp14
g2
(g3
g4
Ntp15
Rp16
(dp17
g8
I0
sg9
I01
sbs(I1
I-10
tp18
g2
(g3
g4
Ntp19
Rp20
(dp21
g8
I0
sg9
I01
sbs(I-2
I0
tp22
g2
(cookoobah.core
FlipFlop
p23
g4
Ntp24
Rp25
(dp26
g8
I0
sg9
I01
sS'is_on'
p27
I00
sbs(I-3
I8
tp28
g2
(g3
g4
Ntp29
Rp30
(dp31
g8
I0
sg9
I01
sbs(I1
I-5
tp32
g2
(g3
g4
Ntp33
Rp34
(dp35
g8
I0
sg9
I01
sbs(I-1
I-3
tp36
g2
(g3
g4
Ntp37
Rp38
(dp39
g8
I0
sg9
I01
sbs(I1
I6
tp40
g2
(g3
g4
Ntp41
Rp42
(dp43
g8
I0
sg9
I01
sbs(I-4
I3
tp44
g2
(g3
g4
Ntp45
Rp46
(dp47
g8
I0
sg9
I01
sbs(I-2
I-10
tp48
g2
(g3
g4
Ntp49
Rp50
(dp51
g8
I0
sg9
I01
sbs(I-8
I1
tp52
g2
(g3
g4
Ntp53
Rp54
(dp55
g8
I0
sg9
I01
sbs(I-3
I-7
tp56
g2
(g3
g4
Ntp57
Rp58
(dp59
g8
I0
sg9
I01
sbs(I-2
I-7
tp60
g2
(g3
g4
Ntp61
Rp62
(dp63
g8
I0
sg9
I01
sbs(I8
I5
tp64
g2
(g3
g4
Ntp65
Rp66
(dp67
g8
I0
sg9
I01
sbs(I-10
I1
tp68
g2
(g3
g4
Ntp69
Rp70
(dp71
g8
I0
sg9
I01
sbs(I-5
I-10
tp72
g2
(g3
g4
Ntp73
Rp74
(dp75
g8
I0
sg9
I01
sbs(I-4
I-8
tp76
g2
(g3
g4
Ntp77
Rp78
(dp79
g8
I0
sg9
I01
sbs(I-10
I3
tp80
g2
(g3
g4
Ntp81
Rp82
(dp83
g8
I0
sg9
I01
sbs(I10
I8
tp84
g2
(g3
g4
Ntp85
Rp86
(dp87
g8
I0
sg9
I01
sbs(I-9
I-1
tp88
g2
(g3
g4
Ntp89
Rp90
(dp91
g8
I0
sg9
I01
sbs(I-5
I1
tp92
g2
(g3
g4
Ntp93
Rp94
(dp95
g8
I0
sg9
I01
sbs(I-6
I-5
tp96
g2
(g3
g4
Ntp97
Rp98
(dp99
g8
I0
sg9
I01
sbs(I3
I-10
tp100
g2
(g3
g4
Ntp101
Rp102
(dp103
g8
I0
sg9
I01
sbs(I-10
I-5
tp104
g2
(g3
g4
Ntp105
Rp106
(dp107
g8
I0
sg9
I01
sbs(I-7
I-8
tp108
g2
(g3
g4
Ntp109
Rp110
(dp111
g8
I0
sg9
I01
sbs(I-6
I-10
tp112
g2
(g3
g4
Ntp113
Rp114
(dp115
g8
I0
sg9
I01
sbs(I-8
I-7
tp116
g2
(g3
g4
Ntp117
Rp118
(dp119
g8
I0
sg9
I01
sbs(I6
I5
tp120
g2
(g3
g4
Ntp121
Rp122
(dp123
g8
I0
sg9
I01
sbs(I0
I4
tp124
g2
(g3
g4
Ntp125
Rp126
(dp127
g8
I0
sg9
I01
sbs(I-5
I-3
tp128
g2
(g3
g4
Ntp129
Rp130
(dp131
g8
I0
sg9
I01
sbs(I1
I1
tp132
g2
(g3
g4
Ntp133
Rp134
(dp135
g8
I0
sg9
I01
sbs(I2
I6
tp136
g2
(g3
g4
Ntp137
Rp138
(dp139
g8
I0
sg9
I01
sbs(I10
I-2
tp140
g2
(g3
g4
Ntp141
Rp142
(dp143
g8
I0
sg9
I01
sbs(I6
I-3
tp144
g2
(g3
g4
Ntp145
Rp146
(dp147
g8
I0
sg9
I01
sbs(I-4
I-3
tp148
g2
(g3
g4
Ntp149
Rp150
(dp151
g8
I0
sg9
I01
sbs(I-2
I-2
tp152
g2
(g3
g4
Ntp153
Rp154
(dp155
g8
I0
sg9
I01
sbs(I-10
I-7
tp156
g2
(g3
g4
Ntp157
Rp158
(dp159
g8
I0
sg9
I01
sbs(I2
I-9
tp160
g2
(g3
g4
Ntp161
Rp162
(dp163
g8
I0
sg9
I01
sbs(I4
I-9
tp164
g2
(g3
g4
Ntp165
Rp166
(dp167
g8
I0
sg9
I01
sbs(I-7
I-5
tp168
g2
(g3
g4
Ntp169
Rp170
(dp171
g8
I0
sg9
I01
sbs(I-5
I8
tp172
g2
(g3
g4
Ntp173
Rp174
(dp175
g8
I0
sg9
I01
sbs(I-6
I4
tp176
g2
(g3
g4
Ntp177
Rp178
(dp179
g8
I0
sg9
I01
sbs(I-8
I-10
tp180
g2
(g3
g4
Ntp181
Rp182
(dp183
g8
I0
sg9
I01
sbs(I-9
I-10
tp184
g2
(g3
g4
Ntp185
Rp186
(dp187
g8
I0
sg9
I01
sbs(I0
I1
tp188
g2
(g3
g4
Ntp189
Rp190
(dp191
g8
I0
sg9
I01
sbs(I-8
I8
tp192
g2
(g3
g4
Ntp193
Rp194
(dp195
g8
I0
sg9
I01
sbs(I2
I-7
tp196
g2
(g3
g4
Ntp197
Rp198
(dp199
g8
I0
sg9
I01
sbs(I-4
I2
tp200
g2
(g3
g4
Ntp201
Rp202
(dp203
g8
I0
sg9
I01
sbs(I4
I1
tp204
g2
(g3
g4
Ntp205
Rp206
(dp207
g8
I0
sg9
I01
sbs(I3
I1
tp208
g2
(g3
g4
Ntp209
Rp210
(dp211
g8
I0
sg9
I01
sbs(I-2
I-9
tp212
g2
(g3
g4
Ntp213
Rp214
(dp215
g8
I0
sg9
I01
sbs(I-1
I-1
tp216
g2
(g3
g4
Ntp217
Rp218
(dp219
g8
I0
sg9
I01
sbs(I-10
I0
tp220
g2
(g3
g4
Ntp221
Rp222
(dp223
g8
I0
sg9
I01
sbs(I9
I-3
tp224
g2
(g3
g4
Ntp225
Rp226
(dp227
g8
I0
sg9
I01
sbs(I-4
I1
tp228
g2
(g3
g4
Ntp229
Rp230
(dp231
g8
I0
sg9
I01
sbs(I-2
I4
tp232
g2
(g3
g4
Ntp233
Rp234
(dp235
g8
I0
sg9
I01
sbs(I-7
I-10
tp236
g2
(g3
g4
Ntp237
Rp238
(dp239
g8
I0
sg9
I01
sbs(I0
I-9
tp240
g2
(g23
g4
Ntp241
Rp242
(dp243
g8
I0
sg9
I01
sg27
I00
sbs(I5
I-1
tp244
g2
(g3
g4
Ntp245
Rp246
(dp247
g8
I0
sg9
I01
sbs(I0
I-6
tp248
g2
(g3
g4
Ntp249
Rp250
(dp251
g8
I0
sg9
I01
sbs(I-8
I5
tp252
g2
(g3
g4
Ntp253
Rp254
(dp255
g8
I0
sg9
I01
sbs(I2
I1
tp256
g2
(g3
g4
Ntp257
Rp258
(dp259
g8
I0
sg9
I01
sbs(I-6
I8
tp260
g2
(g3
g4
Ntp261
Rp262
(dp263
g8
I0
sg9
I01
sbs(I7
I-1
tp264
g2
(g3
g4
Ntp265
Rp266
(dp267
g8
I0
sg9
I01
sbs(I-10
I7
tp268
g2
(g3
g4
Ntp269
Rp270
(dp271
g8
I0
sg9
I01
sbs(I9
I4
tp272
g2
(g23
g4
Ntp273
Rp274
(dp275
g8
I0
sg9
I01
sg27
I00
sbs(I-5
I5
tp276
g2
(g3
g4
Ntp277
Rp278
(dp279
g8
I0
sg9
I01
sbs(I6
I-5
tp280
g2
(g3
g4
Ntp281
Rp282
(dp283
g8
I0
sg9
I01
sbs(I5
I1
tp284
g2
(g3
g4
Ntp285
Rp286
(dp287
g8
I0
sg9
I01
sbs(I10
I-10
tp288
g2
(g3
g4
Ntp289
Rp290
(dp291
g8
I0
sg9
I01
sbs(I10
I3
tp292
g2
(g3
g4
Ntp293
Rp294
(dp295
g8
I0
sg9
I01
sbs(I-1
I-7
tp296
g2
(g3
g4
Ntp297
Rp298
(dp299
g8
I0
sg9
I01
sbs(I-7
I-4
tp300
g2
(cookoobah.core
Mirror
p301
g4
Ntp302
Rp303
(dp304
g8
I1
sS'slope'
p305
I-1
sg9
I00
sbs(I-10
I-8
tp306
g2
(g3
g4
Ntp307
Rp308
(dp309
g8
I0
sg9
I01
sbs(I8
I-7
tp310
g2
(g3
g4
Ntp311
Rp312
(dp313
g8
I0
sg9
I01
sbs(I-2
I1
tp314
g2
(g3
g4
Ntp315
Rp316
(dp317
g8
I0
sg9
I01
sbs(I-8
I-3
tp318
g2
(g3
g4
Ntp319
Rp320
(dp321
g8
I0
sg9
I01
sbs(I1
I-1
tp322
g2
(g3
g4
Ntp323
Rp324
(dp325
g8
I0
sg9
I01
sbs(I5
I8
tp326
g2
(g3
g4
Ntp327
Rp328
(dp329
g8
I0
sg9
I01
sbs(I3
I6
tp330
g2
(g3
g4
Ntp331
Rp332
(dp333
g8
I0
sg9
I01
sbs(I-2
I-1
tp334
g2
(g3
g4
Ntp335
Rp336
(dp337
g8
I0
sg9
I01
sbs(I8
I6
tp338
g2
(g3
g4
Ntp339
Rp340
(dp341
g8
I0
sg9
I01
sbs(I-7
I3
tp342
g2
(g3
g4
Ntp343
Rp344
(dp345
g8
I0
sg9
I01
sbs(I-4
I-7
tp346
g2
(g3
g4
Ntp347
Rp348
(dp349
g8
I0
sg9
I01
sbs(I10
I-4
tp350
g2
(g3
g4
Ntp351
Rp352
(dp353
g8
I0
sg9
I01
sbs(I5
I-2
tp354
g2
(g23
g4
Ntp355
Rp356
(dp357
g8
I0
sg9
I01
sg27
I00
sbs(I6
I4
tp358
g2
(g3
g4
Ntp359
Rp360
(dp361
g8
I0
sg9
I01
sbs(I-5
I-8
tp362
g2
(g3
g4
Ntp363
Rp364
(dp365
g8
I0
sg9
I01
sbs(I-2
I2
tp366
g2
(g3
g4
Ntp367
Rp368
(dp369
g8
I0
sg9
I01
sbs(I10
I4
tp370
g2
(g3
g4
Ntp371
Rp372
(dp373
g8
I0
sg9
I01
sbs(I7
I1
tp374
g2
(g3
g4
Ntp375
Rp376
(dp377
g8
I0
sg9
I01
sbs(I-6
I-9
tp378
g2
(g301
g4
Ntp379
Rp380
(dp381
g8
I1
sg305
I-1
sg9
I00
sbs(I8
I-10
tp382
g2
(g3
g4
Ntp383
Rp384
(dp385
g8
I0
sg9
I01
sbs(I2
I-1
tp386
g2
(g3
g4
Ntp387
Rp388
(dp389
g8
I0
sg9
I01
sbs(I-9
I-2
tp390
g2
(cookoobah.core
Launcher
p391
g4
Ntp392
Rp393
(dp394
g8
I3
sS'direction'
p395
(I0
I-1
tp396
sg9
I01
sbs(I-8
I-6
tp397
g2
(g3
g4
Ntp398
Rp399
(dp400
g8
I0
sg9
I01
sbs(I-10
I5
tp401
g2
(g3
g4
Ntp402
Rp403
(dp404
g8
I0
sg9
I01
sbs(I-1
I4
tp405
g2
(g3
g4
Ntp406
Rp407
(dp408
g8
I0
sg9
I01
sbs(I0
I8
tp409
g2
(g3
g4
Ntp410
Rp411
(dp412
g8
I0
sg9
I01
sbs(I-7
I8
tp413
g2
(g3
g4
Ntp414
Rp415
(dp416
g8
I0
sg9
I01
sbs(I-5
I-5
tp417
g2
(g3
g4
Ntp418
Rp419
(dp420
g8
I0
sg9
I01
sbs(I-1
I-5
tp421
g2
(g3
g4
Ntp422
Rp423
(dp424
g8
I0
sg9
I01
sbs(I8
I3
tp425
g2
(g3
g4
Ntp426
Rp427
(dp428
g8
I0
sg9
I01
sbs(I-8
I0
tp429
g2
(g3
g4
Ntp430
Rp431
(dp432
g8
I0
sg9
I01
sbs(I-4
I-1
tp433
g2
(g3
g4
Ntp434
Rp435
(dp436
g8
I0
sg9
I01
sbs(I-10
I-10
tp437
g2
(g3
g4
Ntp438
Rp439
(dp440
g8
I0
sg9
I01
sbs(I-9
I-4
tp441
g2
(g301
g4
Ntp442
Rp443
(dp444
g8
I1
sg305
I-1
sg9
I00
sbs(I7
I8
tp445
g2
(g3
g4
Ntp446
Rp447
(dp448
g8
I0
sg9
I01
sbs(I6
I1
tp449
g2
(g3
g4
Ntp450
Rp451
(dp452
g8
I0
sg9
I01
sbs(I-9
I8
tp453
g2
(g3
g4
Ntp454
Rp455
(dp456
g8
I0
sg9
I01
sbs(I-2
I8
tp457
g2
(g3
g4
Ntp458
Rp459
(dp460
g8
I0
sg9
I01
sbs(I-4
I8
tp461
g2
(g3
g4
Ntp462
Rp463
(dp464
g8
I0
sg9
I01
sbs(I10
I7
tp465
g2
(g3
g4
Ntp466
Rp467
(dp468
g8
I0
sg9
I01
sbs(I9
I-1
tp469
g2
(g3
g4
Ntp470
Rp471
(dp472
g8
I0
sg9
I01
sbs(I7
I6
tp473
g2
(g23
g4
Ntp474
Rp475
(dp476
g8
I0
sg9
I01
sg27
I00
sbs(I-10
I-3
tp477
g2
(g3
g4
Ntp478
Rp479
(dp480
g8
I0
sg9
I01
sbs(I4
I8
tp481
g2
(g3
g4
Ntp482
Rp483
(dp484
g8
I0
sg9
I01
sbs(I2
I8
tp485
g2
(g3
g4
Ntp486
Rp487
(dp488
g8
I0
sg9
I01
sbs(I9
I8
tp489
g2
(g3
g4
Ntp490
Rp491
(dp492
g8
I0
sg9
I01
sbs(I8
I0
tp493
g2
(g3
g4
Ntp494
Rp495
(dp496
g8
I0
sg9
I01
sbs(I-6
I3
tp497
g2
(g3
g4
Ntp498
Rp499
(dp500
g8
I0
sg9
I01
sbs(I4
I-6
tp501
g2
(g3
g4
Ntp502
Rp503
(dp504
g8
I0
sg9
I01
sbs(I-6
I-1
tp505
g2
(g3
g4
Ntp506
Rp507
(dp508
g8
I0
sg9
I01
sbs(I8
I-3
tp509
g2
(g3
g4
Ntp510
Rp511
(dp512
g8
I0
sg9
I01
sbs(I-2
I5
tp513
g2
(g3
g4
Ntp514
Rp515
(dp516
g8
I0
sg9
I01
sbs(I3
I-3
tp517
g2
(g3
g4
Ntp518
Rp519
(dp520
g8
I0
sg9
I01
sbs(I-4
I-10
tp521
g2
(g3
g4
Ntp522
Rp523
(dp524
g8
I0
sg9
I01
sbs(I1
I-2
tp525
g2
(g3
g4
Ntp526
Rp527
(dp528
g8
I0
sg9
I01
sbs(I2
I4
tp529
g2
(g3
g4
Ntp530
Rp531
(dp532
g8
I0
sg9
I01
sbs(I0
I-5
tp533
g2
(g3
g4
Ntp534
Rp535
(dp536
g8
I0
sg9
I01
sbs(I-10
I4
tp537
g2
(g3
g4
Ntp538
Rp539
(dp540
g8
I0
sg9
I01
sbs(I-8
I6
tp541
g2
(g3
g4
Ntp542
Rp543
(dp544
g8
I0
sg9
I01
sbs(I-6
I-6
tp545
g2
(g3
g4
Ntp546
Rp547
(dp548
g8
I0
sg9
I01
sbs(I-3
I5
tp549
g2
(g3
g4
Ntp550
Rp551
(dp552
g8
I0
sg9
I01
sbs(I-10
I-1
tp553
g2
(g3
g4
Ntp554
Rp555
(dp556
g8
I0
sg9
I01
sbs(I10
I-8
tp557
g2
(g3
g4
Ntp558
Rp559
(dp560
g8
I0
sg9
I01
sbs(I6
I-8
tp561
g2
(g3
g4
Ntp562
Rp563
(dp564
g8
I0
sg9
I01
sbs(I4
I-3
tp565
g2
(g3
g4
Ntp566
Rp567
(dp568
g8
I0
sg9
I01
sbs(I10
I-9
tp569
g2
(g3
g4
Ntp570
Rp571
(dp572
g8
I0
sg9
I01
sbs(I10
I0
tp573
g2
(g3
g4
Ntp574
Rp575
(dp576
g8
I0
sg9
I01
sbs(I-4
I7
tp577
g2
(g3
g4
Ntp578
Rp579
(dp580
g8
I0
sg9
I01
sbs(I-3
I-5
tp581
g2
(g3
g4
Ntp582
Rp583
(dp584
g8
I0
sg9
I01
sbs(I8
I-6
tp585
g2
(g3
g4
Ntp586
Rp587
(dp588
g8
I0
sg9
I01
sbs(I-1
I6
tp589
g2
(g3
g4
Ntp590
Rp591
(dp592
g8
I0
sg9
I01
sbs(I-8
I-2
tp593
g2
(g3
g4
Ntp594
Rp595
(dp596
g8
I0
sg9
I01
sbs(I-10
I-6
tp597
g2
(g3
g4
Ntp598
Rp599
(dp600
g8
I0
sg9
I01
sbs(I-5
I-1
tp601
g2
(g3
g4
Ntp602
Rp603
(dp604
g8
I0
sg9
I01
sbs(I0
I-8
tp605
g2
(g3
g4
Ntp606
Rp607
(dp608
g8
I0
sg9
I01
sbs(I1
I4
tp609
g2
(g23
g4
Ntp610
Rp611
(dp612
g8
I0
sg9
I01
sg27
I00
sbs(I-8
I3
tp613
g2
(g3
g4
Ntp614
Rp615
(dp616
g8
I0
sg9
I01
sbs(I2
I3
tp617
g2
(g3
g4
Ntp618
Rp619
(dp620
g8
I0
sg9
I01
sbs(I-2
I-3
tp621
g2
(g3
g4
Ntp622
Rp623
(dp624
g8
I0
sg9
I01
sbs(I-10
I-4
tp625
g2
(g3
g4
Ntp626
Rp627
(dp628
g8
I0
sg9
I01
sbs(I-7
I2
tp629
g2
(g23
g4
Ntp630
Rp631
(dp632
g8
I0
sg9
I01
sg27
I00
sbs(I4
I2
tp633
g2
(g3
g4
Ntp634
Rp635
(dp636
g8
I0
sg9
I01
sbs(I10
I-3
tp637
g2
(g3
g4
Ntp638
Rp639
(dp640
g8
I0
sg9
I01
sbs(I-9
I-8
tp641
g2
(g3
g4
Ntp642
Rp643
(dp644
g8
I0
sg9
I01
sbs(I5
I-3
tp645
g2
(g3
g4
Ntp646
Rp647
(dp648
g8
I0
sg9
I01
sbs(I-6
I-7
tp649
g2
(g301
g4
Ntp650
Rp651
(dp652
g8
I1
sg305
I-1
sg9
I00
sbs(I4
I6
tp653
g2
(g3
g4
Ntp654
Rp655
(dp656
g8
I0
sg9
I01
sbs(I10
I5
tp657
g2
(g3
g4
Ntp658
Rp659
(dp660
g8
I0
sg9
I01
sbs(I6
I8
tp661
g2
(g3
g4
Ntp662
Rp663
(dp664
g8
I0
sg9
I01
sbs(I-8
I-5
tp665
g2
(g3
g4
Ntp666
Rp667
(dp668
g8
I0
sg9
I01
sbs(I6
I-1
tp669
g2
(g3
g4
Ntp670
Rp671
(dp672
g8
I0
sg9
I01
sbs(I-10
I2
tp673
g2
(g3
g4
Ntp674
Rp675
(dp676
g8
I0
sg9
I01
sbs(I-8
I-1
tp677
g2
(g3
g4
Ntp678
Rp679
(dp680
g8
I0
sg9
I01
sbs(I1
I7
tp681
g2
(g3
g4
Ntp682
Rp683
(dp684
g8
I0
sg9
I01
sbs(I10
I-5
tp685
g2
(g3
g4
Ntp686
Rp687
(dp688
g8
I0
sg9
I01
sbs(I7
I-10
tp689
g2
(g3
g4
Ntp690
Rp691
(dp692
g8
I0
sg9
I01
sbs(I-2
I6
tp693
g2
(g3
g4
Ntp694
Rp695
(dp696
g8
I0
sg9
I01
sbs(I-6
I-3
tp697
g2
(g3
g4
Ntp698
Rp699
(dp700
g8
I0
sg9
I01
sbs(I8
I4
tp701
g2
(g3
g4
Ntp702
Rp703
(dp704
g8
I0
sg9
I01
sbs(I-5
I-9
tp705
g2
(g301
g4
Ntp706
Rp707
(dp708
g8
I0
sg305
I1
sg9
I00
sbs(I10
I-1
tp709
g2
(g3
g4
Ntp710
Rp711
(dp712
g8
I0
sg9
I01
sbs(I-10
I-9
tp713
g2
(g3
g4
Ntp714
Rp715
(dp716
g8
I0
sg9
I01
sbs(I6
I6
tp717
g2
(g3
g4
Ntp718
Rp719
(dp720
g8
I0
sg9
I01
sbs(I5
I6
tp721
g2
(g3
g4
Ntp722
Rp723
(dp724
g8
I0
sg9
I01
sbs(I9
I-10
tp725
g2
(g3
g4
Ntp726
Rp727
(dp728
g8
I0
sg9
I01
sbs(I10
I6
tp729
g2
(g3
g4
Ntp730
Rp731
(dp732
g8
I0
sg9
I01
sbs(I-7
I-7
tp733
g2
(g301
g4
Ntp734
Rp735
(dp736
g8
I1
sg305
I-1
sg9
I00
sbs(I-1
I8
tp737
g2
(g3
g4
Ntp738
Rp739
(dp740
g8
I0
sg9
I01
sbs(I-6
I6
tp741
g2
(g3
g4
Ntp742
Rp743
(dp744
g8
I0
sg9
I01
sbs(I-8
I-8
tp745
g2
(g3
g4
Ntp746
Rp747
(dp748
g8
I0
sg9
I01
sbs(I-10
I6
tp749
g2
(g3
g4
Ntp750
Rp751
(dp752
g8
I0
sg9
I01
sbs(I0
I3
tp753
g2
(g3
g4
Ntp754
Rp755
(dp756
g8
I0
sg9
I01
sbs(I-3
I-10
tp757
g2
(g3
g4
Ntp758
Rp759
(dp760
g8
I0
sg9
I01
sbs(I-6
I1
tp761
g2
(g3
g4
Ntp762
Rp763
(dp764
g8
I0
sg9
I01
sbs(I2
I-8
tp765
g2
(g3
g4
Ntp766
Rp767
(dp768
g8
I0
sg9
I01
sbs(I6
I-4
tp769
g2
(g3
g4
Ntp770
Rp771
(dp772
g8
I0
sg9
I01
sbs(I4
I4
tp773
g2
(g3
g4
Ntp774
Rp775
(dp776
g8
I0
sg9
I01
sbs(I-4
I-4
tp777
g2
(g23
g4
Ntp778
Rp779
(dp780
g8
I0
sg9
I01
sg27
I00
sbs(I4
I-5
tp781
g2
(g3
g4
Ntp782
Rp783
(dp784
g8
I0
sg9
I01
sbs(I4
I-1
tp785
g2
(g3
g4
Ntp786
Rp787
(dp788
g8
I0
sg9
I01
sbs(I6
I3
tp789
g2
(g3
g4
Ntp790
Rp791
(dp792
g8
I0
sg9
I01
sbs(I8
I-1
tp793
g2
(g3
g4
Ntp794
Rp795
(dp796
g8
I0
sg9
I01
sbs(I2
I-10
tp797
g2
(g3
g4
Ntp798
Rp799
(dp800
g8
I0
sg9
I01
sbs(I4
I-10
tp801
g2
(g3
g4
Ntp802
Rp803
(dp804
g8
I0
sg9
I01
sbs(I-1
I1
tp805
g2
(g3
g4
Ntp806
Rp807
(dp808
g8
I0
sg9
I01
sbs(I1
I-3
tp809
g2
(g3
g4
Ntp810
Rp811
(dp812
g8
I0
sg9
I01
sbs(I6
I-10
tp813
g2
(g3
g4
Ntp814
Rp815
(dp816
g8
I0
sg9
I01
sbs(I-4
I-5
tp817
g2
(g3
g4
Ntp818
Rp819
(dp820
g8
I0
sg9
I01
sbs(I-8
I7
tp821
g2
(g3
g4
Ntp822
Rp823
(dp824
g8
I0
sg9
I01
sbs(I10
I-6
tp825
g2
(g3
g4
Ntp826
Rp827
(dp828
g8
I0
sg9
I01
sbs(I7
I-8
tp829
g2
(g3
g4
Ntp830
Rp831
(dp832
g8
I0
sg9
I01
sbs(I2
I-3
tp833
g2
(g3
g4
Ntp834
Rp835
(dp836
g8
I0
sg9
I01
sbs(I10
I-7
tp837
g2
(g3
g4
Ntp838
Rp839
(dp840
g8
I0
sg9
I01
sbs(I-1
I-10
tp841
g2
(g3
g4
Ntp842
Rp843
(dp844
g8
I0
sg9
I01
sbs(I-6
I5
tp845
g2
(g3
g4
Ntp846
Rp847
(dp848
g8
I0
sg9
I01
sbs(I-9
I0
tp849
g2
(cookoobah.core
Exit
p850
g4
Ntp851
Rp852
(dp853
g8
I0
sg9
I01
sg27
I00
sbs(I-10
I8
tp854
g2
(g3
g4
Ntp855
Rp856
(dp857
g8
I0
sg9
I01
sbs(I10
I1
tp858
g2
(g3
g4
Ntp859
Rp860
(dp861
g8
I0
sg9
I01
sbs(I4
I-8
tp862
g2
(g3
g4
Ntp863
Rp864
(dp865
g8
I0
sg9
I01
sbs(I5
I-10
tp866
g2
(g3
g4
Ntp867
Rp868
(dp869
g8
I0
sg9
I01
sbs(I8
I-5
tp870
g2
(g3
g4
Ntp871
Rp872
(dp873
g8
I0
sg9
I01
sbs(I2
I-5
tp874
g2
(g3
g4
Ntp875
Rp876
(dp877
g8
I0
sg9
I01
sbs(I3
I-5
tp878
g2
(g3
g4
Ntp879
Rp880
(dp881
g8
I0
sg9
I01
sbs(I-3
I-3
tp882
g2
(g3
g4
Ntp883
Rp884
(dp885
g8
I0
sg9
I01
sbs(I0
I-10
tp886
g2
(g3
g4
Ntp887
Rp888
(dp889
g8
I0
sg9
I01
sbs(I2
I5
tp890
g2
(g3
g4
Ntp891
Rp892
(dp893
g8
I0
sg9
I01
sbs(I6
I-6
tp894
g2
(g3
g4
Ntp895
Rp896
(dp897
g8
I0
sg9
I01
sbs(I0
I-7
tp898
g2
(g3
g4
Ntp899
Rp900
(dp901
g8
I0
sg9
I01
sbs(I3
I8
tp902
g2
(g3
g4
Ntp903
Rp904
(dp905
g8
I0
sg9
I01
sbs(I8
I1
tp906
g2
(g3
g4
Ntp907
Rp908
(dp909
g8
I0
sg9
I01
sbs(I1
I8
tp910
g2
(g3
g4
Ntp911
Rp912
(dp913
g8
I0
sg9
I01
sbs(I8
I8
tp914
g2
(g3
g4
Ntp915
Rp916
(dp917
g8
I0
sg9
I01
sbs(I-7
I1
tp918
g2
(g3
g4
Ntp919
Rp920
(dp921
g8
I0
sg9
I01
sbs(I4
I3
tp922
g2
(g3
g4
Ntp923
Rp924
(dp925
g8
I0
sg9
I01
sbs(I-6
I0
tp926
g2
(g3
g4
Ntp927
Rp928
(dp929
g8
I0
sg9
I01
sbs(I6
I-7
tp930
g2
(g3
g4
Ntp931
Rp932
(dp933
g8
I0
sg9
I01
sbs(I10
I2
tp934
g2
(g3
g4
Ntp935
Rp936
(dp937
g8
I0
sg9
I01
sbs(I9
I-7
tp938
g2
(g23
g4
Ntp939
Rp940
(dp941
g8
I0
sg9
I01
sg27
I00
sbs(I-10
I-2
tp942
g2
(g3
g4
Ntp943
Rp944
(dp945
g8
I0
sg9
I01
sbs.