(dp0
(I-4
I5
tp1
ccopy_reg
_reconstructor
p2
(cookoobah.core
Wall
p3
c__builtin__
object
p4
Ntp5
Rp6
(dp7
S'all_states_idx'
p8
I0
sS'locked'
p9
I01
sbs(I-1
I2
tp10
g2
(cookoobah.core
Trap
p11
g4
Ntp12
Rp13
(dp14
g8
I0
sg9
I01
sbs(I-1
I5
tp15
g2
(g3
g4
Ntp16
Rp17
(dp18
g8
I0
sg9
I01
sbs(I-7
I4
tp19
g2
(cookoobah.core
Launcher
p20
g4
Ntp21
Rp22
(dp23
g8
I0
sS'direction'
p24
(I1
I0
tp25
sg9
I01
sbs(I-6
I-6
tp26
g2
(g3
g4
Ntp27
Rp28
(dp29
g8
I0
sg9
I01
sbs(I-3
I-1
tp30
g2
(g11
g4
Ntp31
Rp32
(dp33
g8
I0
sg9
I01
sbs(I-8
I5
tp34
g2
(g3
g4
Ntp35
Rp36
(dp37
g8
I0
sg9
I01
sbs(I-3
I-4
tp38
g2
(cookoobah.core
FlipFlop
p39
g4
Ntp40
Rp41
(dp42
g8
I0
sg9
I01
sS'is_on'
p43
I00
sbs(I-2
I-3
tp44
g2
(g11
g4
Ntp45
Rp46
(dp47
g8
I0
sg9
I01
sbs(I-4
I2
tp48
g2
(g39
g4
Ntp49
Rp50
(dp51
g8
I0
sg9
I01
sg43
I00
sbs(I-7
I0
tp52
g2
(g11
g4
Ntp53
Rp54
(dp55
g8
I0
sg9
I01
sbs(I0
I0
tp56
g2
(g3
g4
Ntp57
Rp58
(dp59
g8
I0
sg9
I01
sbs(I-3
I0
tp60
g2
(cookoobah.core
Mirror
p61
g4
Ntp62
Rp63
(dp64
g8
I0
sS'slope'
p65
I1
sg9
I00
sbs(I-2
I5
tp66
g2
(g3
g4
Ntp67
Rp68
(dp69
g8
I0
sg9
I01
sbs(I-5
I5
tp70
g2
(g3
g4
Ntp71
Rp72
(dp73
g8
I0
sg9
I01
sbs(I-8
I1
tp74
g2
(g3
g4
Ntp75
Rp76
(dp77
g8
I0
sg9
I01
sbs(I0
I3
tp78
g2
(g3
g4
Ntp79
Rp80
(dp81
g8
I0
sg9
I01
sbs(I-8
I4
tp82
g2
(g3
g4
Ntp83
Rp84
(dp85
g8
I0
sg9
I01
sbs(I-7
I-4
tp86
g2
(g11
g4
Ntp87
Rp88
(dp89
g8
I0
sg9
I01
sbs(I0
I-6
tp90
g2
(g3
g4
Ntp91
Rp92
(dp93
g8
I0
sg9
I01
sbs(I-8
I-1
tp94
g2
(g3
g4
Ntp95
Rp96
(dp97
g8
I0
sg9
I01
sbs(I-8
I-3
tp98
g2
(g3
g4
Ntp99
Rp100
(dp101
g8
I0
sg9
I01
sbs(I-5
I-5
tp102
g2
(g11
g4
Ntp103
Rp104
(dp105
g8
I0
sg9
I01
sbs(I-6
I0
tp106
g2
(g61
g4
Ntp107
Rp108
(dp109
g8
I1
sg65
I-1
sg9
I00
sbs(I-8
I-4
tp110
g2
(g3
g4
Ntp111
Rp112
(dp113
g8
I0
sg9
I01
sbs(I-1
I0
tp114
g2
(g11
g4
Ntp115
Rp116
(dp117
g8
I0
sg9
I01
sbs(I-4
I3
tp118
g2
(g11
g4
Ntp119
Rp120
(dp121
g8
I0
sg9
I01
sbs(I-8
I2
tp122
g2
(g3
g4
Ntp123
Rp124
(dp125
g8
I0
sg9
I01
sbs(I-5
I-2
tp126
g2
(g61
g4
Ntp127
Rp128
(dp129
g8
I0
sg65
I1
sg9
I00
sbs(I0
I-4
tp130
g2
(g3
g4
Ntp131
Rp132
(dp133
g8
I0
sg9
I01
sbs(I-5
I0
tp134
g2
(g39
g4
Ntp135
Rp136
(dp137
g8
I0
sg9
I01
sg43
I00
sbs(I-5
I-6
tp138
g2
(g3
g4
Ntp139
Rp140
(dp141
g8
I0
sg9
I01
sbs(I-1
I-6
tp142
g2
(g3
g4
Ntp143
Rp144
(dp145
g8
I0
sg9
I01
sbs(I-8
I-5
tp146
g2
(g3
g4
Ntp147
Rp148
(dp149
g8
I0
sg9
I01
sbs(I-6
I1
tp150
g2
(g39
g4
Ntp151
Rp152
(dp153
g8
I0
sg9
I01
sg43
I00
sbs(I-2
I-1
tp154
g2
(g39
g4
Ntp155
Rp156
(dp157
g8
I0
sg9
I01
sg43
I00
sbs(I-6
I3
tp158
g2
(g11
g4
Ntp159
Rp160
(dp161
g8
I0
sg9
I01
sbs(I-2
I2
tp162
g2
(g61
g4
Ntp163
Rp164
(dp165
g8
I1
sg65
I-1
sg9
I00
sbs(I-8
I3
tp166
g2
(g3
g4
Ntp167
Rp168
(dp169
g8
I0
sg9
I01
sbs(I0
I-5
tp170
g2
(g3
g4
Ntp171
Rp172
(dp173
g8
I0
sg9
I01
sbs(I-8
I-6
tp174
g2
(g3
g4
Ntp175
Rp176
(dp177
g8
I0
sg9
I01
sbs(I-3
I1
tp178
g2
(g39
g4
Ntp179
Rp180
(dp181
g8
I0
sg9
I01
sg43
I00
sbs(I-6
I5
tp182
g2
(g3
g4
Ntp183
Rp184
(dp185
g8
I0
sg9
I01
sbs(I0
I-1
tp186
g2
(g3
g4
Ntp187
Rp188
(dp189
g8
I0
sg9
I01
sbs(I0
I4
tp190
g2
(g3
g4
Ntp191
Rp192
(dp193
g8
I0
sg9
I01
sbs(I0
I-3
tp194
g2
(g3
g4
Ntp195
Rp196
(dp197
g8
I0
sg9
I01
sbs(I-3
I5
tp198
g2
(g3
g4
Ntp199
Rp200
(dp201
g8
I0
sg9
I01
sbs(I-5
I-3
tp202
g2
(g39
g4
Ntp203
Rp204
(dp205
g8
I0
sg9
I01
sg43
I00
sbs(I0
I1
tp206
g2
(g3
g4
Ntp207
Rp208
(dp209
g8
I0
sg9
I01
sbs(I-1
I-5
tp210
g2
(cookoobah.core
Exit
p211
g4
Ntp212
Rp213
(dp214
g8
I0
sg9
I01
sg43
I00
sbs(I0
I5
tp215
g2
(g3
g4
Ntp216
Rp217
(dp218
g8
I0
sg9
I01
sbs(I-4
I-2
tp219
g2
(g39
g4
Ntp220
Rp221
(dp222
g8
I0
sg9
I01
sg43
I00
sbs(I-7
I5
tp223
g2
(g3
g4
Ntp224
Rp225
(dp226
g8
I0
sg9
I01
sbs(I-4
I-6
tp227
g2
(g3
g4
Ntp228
Rp229
(dp230
g8
I0
sg9
I01
sbs(I-5
I-4
tp231
g2
(g61
g4
Ntp232
Rp233
(dp234
g8
I1
sg65
I-1
sg9
I00
sbs(I-2
I-2
tp235
g2
(g61
g4
Ntp236
Rp237
(dp238
g8
I0
sg65
I1
sg9
I00
sbs(I-2
I-6
tp239
g2
(g3
g4
Ntp240
Rp241
(dp242
g8
I0
sg9
I01
sbs(I-6
I2
tp243
g2
(g61
g4
Ntp244
Rp245
(dp246
g8
I0
sg65
I1
sg9
I00
sbs(I-7
I-6
tp247
g2
(g3
g4
Ntp248
Rp249
(dp250
g8
I0
sg9
I01
sbs(I-1
I-4
tp251
g2
(g61
g4
Ntp252
Rp253
(dp254
g8
I1
sg65
I-1
sg9
I00
sbs(I-6
I-2
tp255
g2
(g11
g4
Ntp256
Rp257
(dp258
g8
I0
sg9
I01
sbs(I-8
I-2
tp259
g2
(g3
g4
Ntp260
Rp261
(dp262
g8
I0
sg9
I01
sbs(I0
I-2
tp263
g2
(g3
g4
Ntp264
Rp265
(dp266
g8
I0
sg9
I01
sbs(I-3
I4
tp267
g2
(g61
g4
Ntp268
Rp269
(dp270
g8
I1
sg65
I-1
sg9
I00
sbs(I-8
I0
tp271
g2
(g3
g4
Ntp272
Rp273
(dp274
g8
I0
sg9
I01
sbs(I-3
I-6
tp275
g2
(g3
g4
Ntp276
Rp277
(dp278
g8
I0
sg9
I01
sbs(I0
I2
tp279
g2
(g3
g4
Ntp280
Rp281
(dp282
g8
I0
sg9
I01
sbs.