(dp0
(I-1
I-4
tp1
ccopy_reg
_reconstructor
p2
(cookoobah.core
Wall
p3
c__builtin__
object
p4
Ntp5
Rp6
(dp7
S'all_states_idx'
p8
I0
sS'locked'
p9
I01
sbs(I2
I-4
tp10
g2
(g3
g4
Ntp11
Rp12
(dp13
g8
I0
sg9
I01
sbs(I-8
I-1
tp14
g2
(g3
g4
Ntp15
Rp16
(dp17
g8
I0
sg9
I01
sbs(I5
I6
tp18
g2
(g3
g4
Ntp19
Rp20
(dp21
g8
I0
sg9
I01
sbs(I-8
I5
tp22
g2
(g3
g4
Ntp23
Rp24
(dp25
g8
I0
sg9
I01
sbs(I2
I1
tp26
g2
(cookoobah.core
Portal
p27
g4
Ntp28
Rp29
(dp30
g8
I0
sg9
I01
sbs(I6
I2
tp31
g2
(g3
g4
Ntp32
Rp33
(dp34
g8
I0
sg9
I01
sbs(I1
I6
tp35
g2
(g3
g4
Ntp36
Rp37
(dp38
g8
I0
sg9
I01
sbs(I2
I-2
tp39
g2
(cookoobah.core
Mirror
p40
g4
Ntp41
Rp42
(dp43
g8
I0
sS'slope'
p44
I1
sg9
I00
sbs(I-8
I1
tp45
g2
(g3
g4
Ntp46
Rp47
(dp48
g8
I0
sg9
I01
sbs(I5
I1
tp49
g2
(cookoobah.core
Exit
p50
g4
Ntp51
Rp52
(dp53
g8
I0
sg9
I01
sS'is_on'
p54
I00
sbs(I-8
I4
tp55
g2
(g3
g4
Ntp56
Rp57
(dp58
g8
I0
sg9
I01
sbs(I-4
I6
tp59
g2
(g3
g4
Ntp60
Rp61
(dp62
g8
I0
sg9
I01
sbs(I-7
I-4
tp63
g2
(g3
g4
Ntp64
Rp65
(dp66
g8
I0
sg9
I01
sbs(I-1
I0
tp67
g2
(cookoobah.core
FlipFlop
p68
g4
Ntp69
Rp70
(dp71
g8
I0
sg9
I01
sg54
I00
sbs(I-8
I0
tp72
g2
(g3
g4
Ntp73
Rp74
(dp75
g8
I0
sg9
I01
sbs(I-2
I1
tp76
g2
(g68
g4
Ntp77
Rp78
(dp79
g8
I0
sg9
I01
sg54
I00
sbs(I-8
I-3
tp80
g2
(g3
g4
Ntp81
Rp82
(dp83
g8
I0
sg9
I01
sbs(I0
I6
tp84
g2
(g3
g4
Ntp85
Rp86
(dp87
g8
I0
sg9
I01
sbs(I6
I-4
tp88
g2
(g3
g4
Ntp89
Rp90
(dp91
g8
I0
sg9
I01
sbs(I-4
I-4
tp92
g2
(g3
g4
Ntp93
Rp94
(dp95
g8
I0
sg9
I01
sbs(I-6
I-4
tp96
g2
(g3
g4
Ntp97
Rp98
(dp99
g8
I0
sg9
I01
sbs(I6
I3
tp100
g2
(g3
g4
Ntp101
Rp102
(dp103
g8
I0
sg9
I01
sbs(I3
I-4
tp104
g2
(g3
g4
Ntp105
Rp106
(dp107
g8
I0
sg9
I01
sbs(I-8
I2
tp108
g2
(g3
g4
Ntp109
Rp110
(dp111
g8
I0
sg9
I01
sbs(I3
I6
tp112
g2
(g3
g4
Ntp113
Rp114
(dp115
g8
I0
sg9
I01
sbs(I-1
I-2
tp116
g2
(g27
g4
Ntp117
Rp118
(dp119
g8
I0
sg9
I01
sbs(I1
I1
tp120
g2
(g68
g4
Ntp121
Rp122
(dp123
g8
I0
sg9
I01
sg54
I00
sbs(I-2
I6
tp124
g2
(g3
g4
Ntp125
Rp126
(dp127
g8
I0
sg9
I01
sbs(I-3
I6
tp128
g2
(g3
g4
Ntp129
Rp130
(dp131
g8
I0
sg9
I01
sbs(I-8
I-2
tp132
g2
(g3
g4
Ntp133
Rp134
(dp135
g8
I0
sg9
I01
sbs(I-3
I-4
tp136
g2
(g3
g4
Ntp137
Rp138
(dp139
g8
I0
sg9
I01
sbs(I2
I6
tp140
g2
(g3
g4
Ntp141
Rp142
(dp143
g8
I0
sg9
I01
sbs(I6
I6
tp144
g2
(g3
g4
Ntp145
Rp146
(dp147
g8
I0
sg9
I01
sbs(I6
I-3
tp148
g2
(g3
g4
Ntp149
Rp150
(dp151
g8
I0
sg9
I01
sbs(I-1
I2
tp152
g2
(g68
g4
Ntp153
Rp154
(dp155
g8
I0
sg9
I01
sg54
I00
sbs(I-7
I6
tp156
g2
(g3
g4
Ntp157
Rp158
(dp159
g8
I0
sg9
I01
sbs(I-1
I1
tp160
g2
(cookoobah.core
FlipFlopMirror
p161
g4
Ntp162
Rp163
(dp164
g8
I0
sg44
I1
sg9
I01
sbs(I6
I0
tp165
g2
(g3
g4
Ntp166
Rp167
(dp168
g8
I0
sg9
I01
sbs(I-3
I1
tp169
g2
(g68
g4
Ntp170
Rp171
(dp172
g8
I0
sg9
I01
sg54
I00
sbs(I-8
I3
tp173
g2
(g3
g4
Ntp174
Rp175
(dp176
g8
I0
sg9
I01
sbs(I4
I-4
tp177
g2
(g3
g4
Ntp178
Rp179
(dp180
g8
I0
sg9
I01
sbs(I0
I-4
tp181
g2
(g3
g4
Ntp182
Rp183
(dp184
g8
I0
sg9
I01
sbs(I1
I-4
tp185
g2
(g3
g4
Ntp186
Rp187
(dp188
g8
I0
sg9
I01
sbs(I-8
I-4
tp189
g2
(g3
g4
Ntp190
Rp191
(dp192
g8
I0
sg9
I01
sbs(I6
I4
tp193
g2
(g3
g4
Ntp194
Rp195
(dp196
g8
I0
sg9
I01
sbs(I-1
I6
tp197
g2
(g3
g4
Ntp198
Rp199
(dp200
g8
I0
sg9
I01
sbs(I6
I5
tp201
g2
(g3
g4
Ntp202
Rp203
(dp204
g8
I0
sg9
I01
sbs(I4
I6
tp205
g2
(g3
g4
Ntp206
Rp207
(dp208
g8
I0
sg9
I01
sbs(I0
I1
tp209
g2
(g68
g4
Ntp210
Rp211
(dp212
g8
I0
sg9
I01
sg54
I00
sbs(I-4
I4
tp213
g2
(g40
g4
Ntp214
Rp215
(dp216
g8
I0
sg44
I1
sg9
I00
sbs(I-4
I-2
tp217
g2
(g40
g4
Ntp218
Rp219
(dp220
g8
I1
sg44
I-1
sg9
I00
sbs(I-1
I3
tp221
g2
(g68
g4
Ntp222
Rp223
(dp224
g8
I0
sg9
I01
sg54
I00
sbs(I6
I1
tp225
g2
(g3
g4
Ntp226
Rp227
(dp228
g8
I0
sg9
I01
sbs(I6
I-1
tp229
g2
(g3
g4
Ntp230
Rp231
(dp232
g8
I0
sg9
I01
sbs(I-1
I-1
tp233
g2
(g68
g4
Ntp234
Rp235
(dp236
g8
I0
sg9
I01
sg54
I00
sbs(I-5
I6
tp237
g2
(g3
g4
Ntp238
Rp239
(dp240
g8
I0
sg9
I01
sbs(I6
I-2
tp241
g2
(g3
g4
Ntp242
Rp243
(dp244
g8
I0
sg9
I01
sbs(I-2
I-4
tp245
g2
(g3
g4
Ntp246
Rp247
(dp248
g8
I0
sg9
I01
sbs(I-4
I1
tp249
g2
(g27
g4
Ntp250
Rp251
(dp252
g8
I0
sg9
I01
sbs(I-7
I1
tp253
g2
(cookoobah.core
Launcher
p254
g4
Ntp255
Rp256
(dp257
g8
I0
sS'direction'
p258
(I1
I0
tp259
sg9
I01
sbs(I-8
I6
tp260
g2
(g3
g4
Ntp261
Rp262
(dp263
g8
I0
sg9
I01
sbs(I-1
I4
tp264
g2
(g27
g4
Ntp265
Rp266
(dp267
g8
I0
sg9
I01
sbs(I5
I-4
tp268
g2
(g3
g4
Ntp269
Rp270
(dp271
g8
I0
sg9
I01
sbs(I-6
I6
tp272
g2
(g3
g4
Ntp273
Rp274
(dp275
g8
I0
sg9
I01
sbs(I-5
I-4
tp276
g2
(g3
g4
Ntp277
Rp278
(dp279
g8
I0
sg9
I01
sbs(I2
I4
tp280
g2
(g40
g4
Ntp281
Rp282
(dp283
g8
I1
sg44
I-1
sg9
I00
sbs.