(dp0
(I-5
I-9
tp1
ccopy_reg
_reconstructor
p2
(cookoobah.core
Wall
p3
c__builtin__
object
p4
Ntp5
Rp6
(dp7
S'all_states_idx'
p8
I0
sS'locked'
p9
I01
sbs(I-2
I-6
tp10
g2
(cookoobah.core
Trap
p11
g4
Ntp12
Rp13
(dp14
g8
I0
sg9
I01
sbs(I-7
I-3
tp15
g2
(g3
g4
Ntp16
Rp17
(dp18
g8
I0
sg9
I01
sbs(I-3
I-1
tp19
g2
(g3
g4
Ntp20
Rp21
(dp22
g8
I0
sg9
I01
sbs(I-1
I-9
tp23
g2
(g3
g4
Ntp24
Rp25
(dp26
g8
I0
sg9
I01
sbs(I1
I-5
tp27
g2
(g3
g4
Ntp28
Rp29
(dp30
g8
I0
sg9
I01
sbs(I-7
I-7
tp31
g2
(g3
g4
Ntp32
Rp33
(dp34
g8
I0
sg9
I01
sbs(I-1
I-3
tp35
g2
(cookoobah.core
FlipFlop
p36
g4
Ntp37
Rp38
(dp39
g8
I0
sg9
I01
sS'is_on'
p40
I00
sbs(I-6
I-1
tp41
g2
(g3
g4
Ntp42
Rp43
(dp44
g8
I0
sg9
I01
sbs(I-5
I-3
tp45
g2
(g36
g4
Ntp46
Rp47
(dp48
g8
I0
sg9
I01
sg40
I00
sbs(I5
I-8
tp49
g2
(cookoobah.core
OneWay
p50
g4
Ntp51
Rp52
(dp53
g8
I0
sS'direction'
p54
(I1
I0
tp55
sg9
I00
sbs(I3
I-3
tp56
g2
(g3
g4
Ntp57
Rp58
(dp59
g8
I0
sg9
I01
sbs(I-3
I-7
tp60
g2
(g36
g4
Ntp61
Rp62
(dp63
g8
I0
sg9
I01
sg40
I00
sbs(I-1
I-7
tp64
g2
(g36
g4
Ntp65
Rp66
(dp67
g8
I0
sg9
I01
sg40
I00
sbs(I1
I-1
tp68
g2
(g3
g4
Ntp69
Rp70
(dp71
g8
I0
sg9
I01
sbs(I-7
I-4
tp72
g2
(g3
g4
Ntp73
Rp74
(dp75
g8
I0
sg9
I01
sbs(I3
I-7
tp76
g2
(g3
g4
Ntp77
Rp78
(dp79
g8
I0
sg9
I01
sbs(I-3
I-3
tp80
g2
(g36
g4
Ntp81
Rp82
(dp83
g8
I0
sg9
I01
sg40
I00
sbs(I1
I-6
tp84
g2
(g3
g4
Ntp85
Rp86
(dp87
g8
I0
sg9
I01
sbs(I1
I-2
tp88
g2
(g3
g4
Ntp89
Rp90
(dp91
g8
I0
sg9
I01
sbs(I-7
I-8
tp92
g2
(g3
g4
Ntp93
Rp94
(dp95
g8
I0
sg9
I01
sbs(I-4
I-4
tp96
g2
(g11
g4
Ntp97
Rp98
(dp99
g8
I0
sg9
I01
sbs(I3
I-4
tp100
g2
(g3
g4
Ntp101
Rp102
(dp103
g8
I0
sg9
I01
sbs(I-5
I-1
tp104
g2
(g3
g4
Ntp105
Rp106
(dp107
g8
I0
sg9
I01
sbs(I-1
I-1
tp108
g2
(g3
g4
Ntp109
Rp110
(dp111
g8
I0
sg9
I01
sbs(I5
I-6
tp112
g2
(g50
g4
Ntp113
Rp114
(dp115
g8
I0
sg54
g55
sg9
I00
sbs(I-3
I-5
tp116
g2
(cookoobah.core
Portal
p117
g4
Ntp118
Rp119
(dp120
g8
I0
sg9
I01
sbs(I5
I-2
tp121
g2
(g50
g4
Ntp122
Rp123
(dp124
g8
I0
sg54
g55
sg9
I00
sbs(I0
I-1
tp125
g2
(g3
g4
Ntp126
Rp127
(dp128
g8
I0
sg9
I01
sbs(I3
I-8
tp129
g2
(g3
g4
Ntp130
Rp131
(dp132
g8
I0
sg9
I01
sbs(I2
I-1
tp133
g2
(g3
g4
Ntp134
Rp135
(dp136
g8
I0
sg9
I01
sbs(I1
I-7
tp137
g2
(g3
g4
Ntp138
Rp139
(dp140
g8
I0
sg9
I01
sbs(I-6
I-9
tp141
g2
(g3
g4
Ntp142
Rp143
(dp144
g8
I0
sg9
I01
sbs(I2
I-2
tp145
g2
(cookoobah.core
Launcher
p146
g4
Ntp147
Rp148
(dp149
g8
I3
sg54
(I0
I-1
tp150
sg9
I01
sbs(I3
I-1
tp151
g2
(g3
g4
Ntp152
Rp153
(dp154
g8
I0
sg9
I01
sbs(I2
I-9
tp155
g2
(g3
g4
Ntp156
Rp157
(dp158
g8
I0
sg9
I01
sbs(I-4
I-6
tp159
g2
(g11
g4
Ntp160
Rp161
(dp162
g8
I0
sg9
I01
sbs(I-3
I-9
tp163
g2
(g3
g4
Ntp164
Rp165
(dp166
g8
I0
sg9
I01
sbs(I1
I-4
tp167
g2
(g3
g4
Ntp168
Rp169
(dp170
g8
I0
sg9
I01
sbs(I1
I-3
tp171
g2
(g3
g4
Ntp172
Rp173
(dp174
g8
I0
sg9
I01
sbs(I-7
I-1
tp175
g2
(g3
g4
Ntp176
Rp177
(dp178
g8
I0
sg9
I01
sbs(I2
I-5
tp179
g2
(g117
g4
Ntp180
Rp181
(dp182
g8
I0
sg9
I01
sbs(I3
I-5
tp183
g2
(g3
g4
Ntp184
Rp185
(dp186
g8
I0
sg9
I01
sbs(I-5
I-5
tp187
g2
(g36
g4
Ntp188
Rp189
(dp190
g8
I0
sg9
I01
sg40
I00
sbs(I-1
I-5
tp191
g2
(g36
g4
Ntp192
Rp193
(dp194
g8
I0
sg9
I01
sg40
I00
sbs(I1
I-8
tp195
g2
(g3
g4
Ntp196
Rp197
(dp198
g8
I0
sg9
I01
sbs(I-7
I-2
tp199
g2
(g3
g4
Ntp200
Rp201
(dp202
g8
I0
sg9
I01
sbs(I-4
I-1
tp203
g2
(g3
g4
Ntp204
Rp205
(dp206
g8
I0
sg9
I01
sbs(I1
I-9
tp207
g2
(g3
g4
Ntp208
Rp209
(dp210
g8
I0
sg9
I01
sbs(I3
I-9
tp211
g2
(g3
g4
Ntp212
Rp213
(dp214
g8
I0
sg9
I01
sbs(I-4
I-9
tp215
g2
(g3
g4
Ntp216
Rp217
(dp218
g8
I0
sg9
I01
sbs(I-5
I-7
tp219
g2
(g36
g4
Ntp220
Rp221
(dp222
g8
I0
sg9
I01
sg40
I00
sbs(I-2
I-9
tp223
g2
(g3
g4
Ntp224
Rp225
(dp226
g8
I0
sg9
I01
sbs(I-2
I-1
tp227
g2
(g3
g4
Ntp228
Rp229
(dp230
g8
I0
sg9
I01
sbs(I3
I-2
tp231
g2
(g3
g4
Ntp232
Rp233
(dp234
g8
I0
sg9
I01
sbs(I-7
I-6
tp235
g2
(g3
g4
Ntp236
Rp237
(dp238
g8
I0
sg9
I01
sbs(I-2
I-4
tp239
g2
(g11
g4
Ntp240
Rp241
(dp242
g8
I0
sg9
I01
sbs(I-7
I-5
tp243
g2
(g3
g4
Ntp244
Rp245
(dp246
g8
I0
sg9
I01
sbs(I-7
I-9
tp247
g2
(g3
g4
Ntp248
Rp249
(dp250
g8
I0
sg9
I01
sbs(I2
I-8
tp251
g2
(cookoobah.core
Exit
p252
g4
Ntp253
Rp254
(dp255
g8
I0
sg9
I01
sg40
I00
sbs(I3
I-6
tp256
g2
(g3
g4
Ntp257
Rp258
(dp259
g8
I0
sg9
I01
sbs(I5
I-4
tp260
g2
(g50
g4
Ntp261
Rp262
(dp263
g8
I0
sg54
g55
sg9
I00
sbs(I0
I-9
tp264
g2
(g3
g4
Ntp265
Rp266
(dp267
g8
I0
sg9
I01
sbs.