(dp0
(I-2
I0
tp1
ccopy_reg
_reconstructor
p2
(cookoobah.core
Trap
p3
c__builtin__
object
p4
Ntp5
Rp6
(dp7
S'all_states_idx'
p8
I0
sS'locked'
p9
I01
sbs(I-8
I-4
tp10
g2
(cookoobah.core
Wall
p11
g4
Ntp12
Rp13
(dp14
g8
I0
sg9
I01
sbs(I0
I-13
tp15
g2
(g11
g4
Ntp16
Rp17
(dp18
g8
I0
sg9
I01
sbs(I-7
I2
tp19
g2
(g11
g4
Ntp20
Rp21
(dp22
g8
I0
sg9
I01
sbs(I-3
I-7
tp23
g2
(g11
g4
Ntp24
Rp25
(dp26
g8
I0
sg9
I01
sbs(I2
I5
tp27
g2
(g11
g4
Ntp28
Rp29
(dp30
g8
I0
sg9
I01
sbs(I4
I0
tp31
g2
(cookoobah.core
FlipFlop
p32
g4
Ntp33
Rp34
(dp35
g8
I0
sg9
I01
sS'is_on'
p36
I00
sbs(I-5
I1
tp37
g2
(g3
g4
Ntp38
Rp39
(dp40
g8
I0
sg9
I01
sbs(I-5
I-5
tp41
g2
(g11
g4
Ntp42
Rp43
(dp44
g8
I0
sg9
I01
sbs(I-6
I-10
tp45
g2
(cookoobah.core
Mirror
p46
g4
Ntp47
Rp48
(dp49
g8
I0
sS'slope'
p50
I1
sg9
I00
sbs(I-5
I3
tp51
g2
(g11
g4
Ntp52
Rp53
(dp54
g8
I0
sg9
I01
sbs(I1
I1
tp55
g2
(g32
g4
Ntp56
Rp57
(dp58
g8
I0
sg9
I01
sg36
I00
sbs(I3
I2
tp59
g2
(g3
g4
Ntp60
Rp61
(dp62
g8
I0
sg9
I01
sbs(I-1
I-6
tp63
g2
(g3
g4
Ntp64
Rp65
(dp66
g8
I0
sg9
I01
sbs(I6
I0
tp67
g2
(g11
g4
Ntp68
Rp69
(dp70
g8
I0
sg9
I01
sbs(I2
I-9
tp71
g2
(g11
g4
Ntp72
Rp73
(dp74
g8
I0
sg9
I01
sbs(I-7
I0
tp75
g2
(g11
g4
Ntp76
Rp77
(dp78
g8
I0
sg9
I01
sbs(I4
I-6
tp79
g2
(g11
g4
Ntp80
Rp81
(dp82
g8
I0
sg9
I01
sbs(I7
I-5
tp83
g2
(g11
g4
Ntp84
Rp85
(dp86
g8
I0
sg9
I01
sbs(I5
I-8
tp87
g2
(g46
g4
Ntp88
Rp89
(dp90
g8
I0
sg50
I1
sg9
I00
sbs(I-6
I2
tp91
g2
(g11
g4
Ntp92
Rp93
(dp94
g8
I0
sg9
I01
sbs(I-1
I4
tp95
g2
(g3
g4
Ntp96
Rp97
(dp98
g8
I0
sg9
I01
sbs(I-3
I4
tp99
g2
(g11
g4
Ntp100
Rp101
(dp102
g8
I0
sg9
I01
sbs(I-1
I5
tp103
g2
(g11
g4
Ntp104
Rp105
(dp106
g8
I0
sg9
I01
sbs(I-3
I-11
tp107
g2
(g11
g4
Ntp108
Rp109
(dp110
g8
I0
sg9
I01
sbs(I-1
I-3
tp111
g2
(g32
g4
Ntp112
Rp113
(dp114
g8
I0
sg9
I01
sg36
I00
sbs(I7
I-1
tp115
g2
(g11
g4
Ntp116
Rp117
(dp118
g8
I0
sg9
I01
sbs(I6
I-5
tp119
g2
(cookoobah.core
Exit
p120
g4
Ntp121
Rp122
(dp123
g8
I0
sg9
I01
sg36
I00
sbs(I-8
I-3
tp124
g2
(g11
g4
Ntp125
Rp126
(dp127
g8
I0
sg9
I01
sbs(I1
I5
tp128
g2
(g11
g4
Ntp129
Rp130
(dp131
g8
I0
sg9
I01
sbs(I-3
I-8
tp132
g2
(g11
g4
Ntp133
Rp134
(dp135
g8
I0
sg9
I01
sbs(I-1
I-1
tp136
g2
(g32
g4
Ntp137
Rp138
(dp139
g8
I0
sg9
I01
sg36
I00
sbs(I7
I-3
tp140
g2
(g11
g4
Ntp141
Rp142
(dp143
g8
I0
sg9
I01
sbs(I-6
I-8
tp144
g2
(g46
g4
Ntp145
Rp146
(dp147
g8
I0
sg50
I1
sg9
I00
sbs(I-5
I-6
tp148
g2
(g11
g4
Ntp149
Rp150
(dp151
g8
I0
sg9
I01
sbs(I2
I-1
tp152
g2
(g3
g4
Ntp153
Rp154
(dp155
g8
I0
sg9
I01
sbs(I2
I-13
tp156
g2
(g11
g4
Ntp157
Rp158
(dp159
g8
I0
sg9
I01
sbs(I-2
I2
tp160
g2
(g32
g4
Ntp161
Rp162
(dp163
g8
I0
sg9
I01
sg36
I00
sbs(I-8
I-6
tp164
g2
(g11
g4
Ntp165
Rp166
(dp167
g8
I0
sg9
I01
sbs(I0
I5
tp168
g2
(g11
g4
Ntp169
Rp170
(dp171
g8
I0
sg9
I01
sbs(I2
I-8
tp172
g2
(g11
g4
Ntp173
Rp174
(dp175
g8
I0
sg9
I01
sbs(I-3
I-5
tp176
g2
(g11
g4
Ntp177
Rp178
(dp179
g8
I0
sg9
I01
sbs(I-4
I-2
tp180
g2
(g32
g4
Ntp181
Rp182
(dp183
g8
I0
sg9
I01
sg36
I00
sbs(I3
I4
tp184
g2
(g11
g4
Ntp185
Rp186
(dp187
g8
I0
sg9
I01
sbs(I6
I1
tp188
g2
(g11
g4
Ntp189
Rp190
(dp191
g8
I0
sg9
I01
sbs(I2
I-12
tp192
g2
(g11
g4
Ntp193
Rp194
(dp195
g8
I0
sg9
I01
sbs(I2
I4
tp196
g2
(g11
g4
Ntp197
Rp198
(dp199
g8
I0
sg9
I01
sbs(I-7
I-6
tp200
g2
(g11
g4
Ntp201
Rp202
(dp203
g8
I0
sg9
I01
sbs(I1
I-13
tp204
g2
(g11
g4
Ntp205
Rp206
(dp207
g8
I0
sg9
I01
sbs(I7
I-6
tp208
g2
(g11
g4
Ntp209
Rp210
(dp211
g8
I0
sg9
I01
sbs(I-6
I3
tp212
g2
(g11
g4
Ntp213
Rp214
(dp215
g8
I0
sg9
I01
sbs(I-4
I2
tp216
g2
(g3
g4
Ntp217
Rp218
(dp219
g8
I0
sg9
I01
sbs(I5
I-12
tp220
g2
(g46
g4
Ntp221
Rp222
(dp223
g8
I0
sg50
I1
sg9
I00
sbs(I6
I2
tp224
g2
(g11
g4
Ntp225
Rp226
(dp227
g8
I0
sg9
I01
sbs(I-2
I5
tp228
g2
(g11
g4
Ntp229
Rp230
(dp231
g8
I0
sg9
I01
sbs(I3
I-3
tp232
g2
(g32
g4
Ntp233
Rp234
(dp235
g8
I0
sg9
I01
sg36
I00
sbs(I1
I-2
tp236
g2
(g3
g4
Ntp237
Rp238
(dp239
g8
I0
sg9
I01
sbs(I-3
I-12
tp240
g2
(g11
g4
Ntp241
Rp242
(dp243
g8
I0
sg9
I01
sbs(I-3
I5
tp244
g2
(g11
g4
Ntp245
Rp246
(dp247
g8
I0
sg9
I01
sbs(I-5
I4
tp248
g2
(g11
g4
Ntp249
Rp250
(dp251
g8
I0
sg9
I01
sbs(I5
I-6
tp252
g2
(g11
g4
Ntp253
Rp254
(dp255
g8
I0
sg9
I01
sbs(I1
I-12
tp256
g2
(cookoobah.core
Launcher
p257
g4
Ntp258
Rp259
(dp260
g8
I2
sS'direction'
p261
(I-1
I0
tp262
sg9
I01
sbs(I2
I-6
tp263
g2
(g11
g4
Ntp264
Rp265
(dp266
g8
I0
sg9
I01
sbs(I-8
I-2
tp267
g2
(g11
g4
Ntp268
Rp269
(dp270
g8
I0
sg9
I01
sbs(I-3
I-9
tp271
g2
(g11
g4
Ntp272
Rp273
(dp274
g8
I0
sg9
I01
sbs(I7
I-4
tp275
g2
(g11
g4
Ntp276
Rp277
(dp278
g8
I0
sg9
I01
sbs(I5
I-3
tp279
g2
(g3
g4
Ntp280
Rp281
(dp282
g8
I0
sg9
I01
sbs(I5
I3
tp283
g2
(g11
g4
Ntp284
Rp285
(dp286
g8
I0
sg9
I01
sbs(I-4
I4
tp287
g2
(g11
g4
Ntp288
Rp289
(dp290
g8
I0
sg9
I01
sbs(I7
I0
tp291
g2
(g11
g4
Ntp292
Rp293
(dp294
g8
I0
sg9
I01
sbs(I-6
I-12
tp295
g2
(g46
g4
Ntp296
Rp297
(dp298
g8
I0
sg50
I1
sg9
I00
sbs(I-8
I-5
tp299
g2
(g11
g4
Ntp300
Rp301
(dp302
g8
I0
sg9
I01
sbs(I7
I-2
tp303
g2
(g11
g4
Ntp304
Rp305
(dp306
g8
I0
sg9
I01
sbs(I-8
I-1
tp307
g2
(g11
g4
Ntp308
Rp309
(dp310
g8
I0
sg9
I01
sbs(I-8
I0
tp311
g2
(g11
g4
Ntp312
Rp313
(dp314
g8
I0
sg9
I01
sbs(I-3
I-6
tp315
g2
(g11
g4
Ntp316
Rp317
(dp318
g8
I0
sg9
I01
sbs(I-6
I-3
tp319
g2
(g3
g4
Ntp320
Rp321
(dp322
g8
I0
sg9
I01
sbs(I-6
I-6
tp323
g2
(g11
g4
Ntp324
Rp325
(dp326
g8
I0
sg9
I01
sbs(I2
I-11
tp327
g2
(g11
g4
Ntp328
Rp329
(dp330
g8
I0
sg9
I01
sbs(I-3
I-4
tp331
g2
(g3
g4
Ntp332
Rp333
(dp334
g8
I0
sg9
I01
sbs(I0
I3
tp335
g2
(g3
g4
Ntp336
Rp337
(dp338
g8
I0
sg9
I01
sbs(I4
I4
tp339
g2
(g11
g4
Ntp340
Rp341
(dp342
g8
I0
sg9
I01
sbs(I4
I-5
tp343
g2
(g11
g4
Ntp344
Rp345
(dp346
g8
I0
sg9
I01
sbs(I2
I-10
tp347
g2
(g11
g4
Ntp348
Rp349
(dp350
g8
I0
sg9
I01
sbs(I4
I3
tp351
g2
(g11
g4
Ntp352
Rp353
(dp354
g8
I0
sg9
I01
sbs(I-3
I-13
tp355
g2
(g11
g4
Ntp356
Rp357
(dp358
g8
I0
sg9
I01
sbs(I-1
I-13
tp359
g2
(g11
g4
Ntp360
Rp361
(dp362
g8
I0
sg9
I01
sbs(I-4
I0
tp363
g2
(g32
g4
Ntp364
Rp365
(dp366
g8
I0
sg9
I01
sg36
I00
sbs(I5
I-10
tp367
g2
(g46
g4
Ntp368
Rp369
(dp370
g8
I0
sg50
I1
sg9
I00
sbs(I2
I-5
tp371
g2
(g11
g4
Ntp372
Rp373
(dp374
g8
I0
sg9
I01
sbs(I3
I-5
tp375
g2
(g11
g4
Ntp376
Rp377
(dp378
g8
I0
sg9
I01
sbs(I0
I-10
tp379
g2
(g3
g4
Ntp380
Rp381
(dp382
g8
I0
sg9
I01
sbs(I2
I-7
tp383
g2
(g11
g4
Ntp384
Rp385
(dp386
g8
I0
sg9
I01
sbs(I-3
I-10
tp387
g2
(g11
g4
Ntp388
Rp389
(dp390
g8
I0
sg9
I01
sbs(I-7
I1
tp391
g2
(g11
g4
Ntp392
Rp393
(dp394
g8
I0
sg9
I01
sbs(I-4
I-5
tp395
g2
(g11
g4
Ntp396
Rp397
(dp398
g8
I0
sg9
I01
sbs(I-2
I-13
tp399
g2
(g11
g4
Ntp400
Rp401
(dp402
g8
I0
sg9
I01
sbs(I6
I-6
tp403
g2
(g11
g4
Ntp404
Rp405
(dp406
g8
I0
sg9
I01
sbs(I5
I2
tp407
g2
(g11
g4
Ntp408
Rp409
(dp410
g8
I0
sg9
I01
sbs.