(dp0
(I4
I-3
tp1
ccopy_reg
_reconstructor
p2
(cookoobah.core
Wall
p3
c__builtin__
object
p4
Ntp5
Rp6
(dp7
S'all_states_idx'
p8
I0
sS'locked'
p9
I01
sbs(I-7
I-3
tp10
g2
(cookoobah.core
FlipFlop
p11
g4
Ntp12
Rp13
(dp14
g8
I0
sg9
I01
sS'is_on'
p15
I00
sbs(I-2
I0
tp16
g2
(g3
g4
Ntp17
Rp18
(dp19
g8
I0
sg9
I01
sbs(I-8
I-4
tp20
g2
(g3
g4
Ntp21
Rp22
(dp23
g8
I0
sg9
I01
sbs(I1
I-5
tp24
g2
(g3
g4
Ntp25
Rp26
(dp27
g8
I0
sg9
I01
sbs(I2
I1
tp28
g2
(g3
g4
Ntp29
Rp30
(dp31
g8
I0
sg9
I01
sbs(I4
I-5
tp32
g2
(g3
g4
Ntp33
Rp34
(dp35
g8
I0
sg9
I01
sbs(I-1
I2
tp36
g2
(g3
g4
Ntp37
Rp38
(dp39
g8
I0
sg9
I01
sbs(I-3
I-7
tp40
g2
(cookoobah.core
Mirror
p41
g4
Ntp42
Rp43
(dp44
g8
I0
sS'slope'
p45
I1
sg9
I00
sbs(I-2
I-7
tp46
g2
(g41
g4
Ntp47
Rp48
(dp49
g8
I0
sg45
I1
sg9
I00
sbs(I-1
I0
tp50
g2
(g3
g4
Ntp51
Rp52
(dp53
g8
I0
sg9
I01
sbs(I-6
I-5
tp54
g2
(g3
g4
Ntp55
Rp56
(dp57
g8
I0
sg9
I01
sbs(I-5
I-5
tp58
g2
(g3
g4
Ntp59
Rp60
(dp61
g8
I0
sg9
I01
sbs(I-3
I2
tp62
g2
(g41
g4
Ntp63
Rp64
(dp65
g8
I1
sg45
I-1
sg9
I00
sbs(I1
I1
tp66
g2
(g3
g4
Ntp67
Rp68
(dp69
g8
I0
sg9
I01
sbs(I0
I-1
tp70
g2
(g11
g4
Ntp71
Rp72
(dp73
g8
I0
sg9
I01
sg15
I00
sbs(I3
I2
tp74
g2
(cookoobah.core
Exit
p75
g4
Ntp76
Rp77
(dp78
g8
I0
sg9
I01
sg15
I00
sbs(I-4
I-3
tp79
g2
(g3
g4
Ntp80
Rp81
(dp82
g8
I0
sg9
I01
sbs(I-2
I-1
tp83
g2
(g41
g4
Ntp84
Rp85
(dp86
g8
I1
sg45
I-1
sg9
I00
sbs(I-1
I-2
tp87
g2
(g3
g4
Ntp88
Rp89
(dp90
g8
I0
sg9
I01
sbs(I-3
I1
tp91
g2
(g41
g4
Ntp92
Rp93
(dp94
g8
I0
sg45
I1
sg9
I00
sbs(I-7
I-5
tp95
g2
(g3
g4
Ntp96
Rp97
(dp98
g8
I0
sg9
I01
sbs(I3
I1
tp99
g2
(g3
g4
Ntp100
Rp101
(dp102
g8
I0
sg9
I01
sbs(I-1
I-1
tp103
g2
(g3
g4
Ntp104
Rp105
(dp106
g8
I0
sg9
I01
sbs(I-6
I2
tp107
g2
(g3
g4
Ntp108
Rp109
(dp110
g8
I0
sg9
I01
sbs(I-9
I3
tp111
g2
(g3
g4
Ntp112
Rp113
(dp114
g8
I0
sg9
I01
sbs(I-1
I-3
tp115
g2
(g3
g4
Ntp116
Rp117
(dp118
g8
I0
sg9
I01
sbs(I4
I-1
tp119
g2
(g3
g4
Ntp120
Rp121
(dp122
g8
I0
sg9
I01
sbs(I-7
I-4
tp123
g2
(g41
g4
Ntp124
Rp125
(dp126
g8
I1
sg45
I-1
sg9
I00
sbs(I-2
I3
tp127
g2
(g3
g4
Ntp128
Rp129
(dp130
g8
I0
sg9
I01
sbs(I-1
I1
tp131
g2
(g3
g4
Ntp132
Rp133
(dp134
g8
I0
sg9
I01
sbs(I-8
I-3
tp135
g2
(g3
g4
Ntp136
Rp137
(dp138
g8
I0
sg9
I01
sbs(I1
I-1
tp139
g2
(g3
g4
Ntp140
Rp141
(dp142
g8
I0
sg9
I01
sbs(I-2
I-2
tp143
g2
(g41
g4
Ntp144
Rp145
(dp146
g8
I0
sg45
I1
sg9
I00
sbs(I-7
I3
tp147
g2
(g3
g4
Ntp148
Rp149
(dp150
g8
I0
sg9
I01
sbs(I4
I1
tp151
g2
(g3
g4
Ntp152
Rp153
(dp154
g8
I0
sg9
I01
sbs(I-5
I0
tp155
g2
(g3
g4
Ntp156
Rp157
(dp158
g8
I0
sg9
I01
sbs(I2
I-2
tp159
g2
(g11
g4
Ntp160
Rp161
(dp162
g8
I0
sg9
I01
sg15
I00
sbs(I2
I-1
tp163
g2
(g41
g4
Ntp164
Rp165
(dp166
g8
I0
sg45
I1
sg9
I00
sbs(I-2
I-5
tp167
g2
(g3
g4
Ntp168
Rp169
(dp170
g8
I0
sg9
I01
sbs(I1
I0
tp171
g2
(g3
g4
Ntp172
Rp173
(dp174
g8
I0
sg9
I01
sbs(I-3
I-5
tp175
g2
(g3
g4
Ntp176
Rp177
(dp178
g8
I0
sg9
I01
sbs(I-1
I-5
tp179
g2
(g3
g4
Ntp180
Rp181
(dp182
g8
I0
sg9
I01
sbs(I-4
I-2
tp183
g2
(g11
g4
Ntp184
Rp185
(dp186
g8
I0
sg9
I01
sg15
I00
sbs(I-6
I-3
tp187
g2
(g3
g4
Ntp188
Rp189
(dp190
g8
I0
sg9
I01
sbs(I3
I-1
tp191
g2
(g41
g4
Ntp192
Rp193
(dp194
g8
I1
sg45
I-1
sg9
I00
sbs(I0
I-2
tp195
g2
(g11
g4
Ntp196
Rp197
(dp198
g8
I0
sg9
I01
sg15
I00
sbs(I0
I2
tp199
g2
(g41
g4
Ntp200
Rp201
(dp202
g8
I0
sg45
I1
sg9
I00
sbs(I3
I-2
tp203
g2
(g11
g4
Ntp204
Rp205
(dp206
g8
I0
sg9
I01
sg15
I00
sbs(I1
I3
tp207
g2
(g3
g4
Ntp208
Rp209
(dp210
g8
I0
sg9
I01
sbs(I-6
I3
tp211
g2
(g3
g4
Ntp212
Rp213
(dp214
g8
I0
sg9
I01
sbs(I-9
I2
tp215
g2
(g3
g4
Ntp216
Rp217
(dp218
g8
I0
sg9
I01
sbs(I-4
I-1
tp219
g2
(g11
g4
Ntp220
Rp221
(dp222
g8
I0
sg9
I01
sg15
I00
sbs(I-6
I-1
tp223
g2
(g3
g4
Ntp224
Rp225
(dp226
g8
I0
sg9
I01
sbs(I-3
I3
tp227
g2
(g3
g4
Ntp228
Rp229
(dp230
g8
I0
sg9
I01
sbs(I1
I-2
tp231
g2
(g3
g4
Ntp232
Rp233
(dp234
g8
I0
sg9
I01
sbs(I0
I-5
tp235
g2
(g3
g4
Ntp236
Rp237
(dp238
g8
I0
sg9
I01
sbs(I-5
I-1
tp239
g2
(g41
g4
Ntp240
Rp241
(dp242
g8
I0
sg45
I1
sg9
I00
sbs(I-9
I1
tp243
g2
(g3
g4
Ntp244
Rp245
(dp246
g8
I0
sg9
I01
sbs(I-8
I-1
tp247
g2
(g3
g4
Ntp248
Rp249
(dp250
g8
I0
sg9
I01
sbs(I-8
I3
tp251
g2
(g3
g4
Ntp252
Rp253
(dp254
g8
I0
sg9
I01
sbs(I2
I3
tp255
g2
(g3
g4
Ntp256
Rp257
(dp258
g8
I0
sg9
I01
sbs(I-2
I-3
tp259
g2
(g3
g4
Ntp260
Rp261
(dp262
g8
I0
sg9
I01
sbs(I4
I2
tp263
g2
(g3
g4
Ntp264
Rp265
(dp266
g8
I0
sg9
I01
sbs(I-5
I3
tp267
g2
(g3
g4
Ntp268
Rp269
(dp270
g8
I0
sg9
I01
sbs(I-5
I-3
tp271
g2
(g3
g4
Ntp272
Rp273
(dp274
g8
I0
sg9
I01
sbs(I4
I-4
tp275
g2
(g3
g4
Ntp276
Rp277
(dp278
g8
I0
sg9
I01
sbs(I-7
I-2
tp279
g2
(g41
g4
Ntp280
Rp281
(dp282
g8
I1
sg45
I-1
sg9
I00
sbs(I-1
I3
tp283
g2
(g3
g4
Ntp284
Rp285
(dp286
g8
I0
sg9
I01
sbs(I-8
I-5
tp287
g2
(g3
g4
Ntp288
Rp289
(dp290
g8
I0
sg9
I01
sbs(I-8
I0
tp291
g2
(g3
g4
Ntp292
Rp293
(dp294
g8
I0
sg9
I01
sbs(I-8
I-2
tp295
g2
(g3
g4
Ntp296
Rp297
(dp298
g8
I0
sg9
I01
sbs(I-3
I0
tp299
g2
(g3
g4
Ntp300
Rp301
(dp302
g8
I0
sg9
I01
sbs(I0
I3
tp303
g2
(g3
g4
Ntp304
Rp305
(dp306
g8
I0
sg9
I01
sbs(I-3
I-3
tp307
g2
(g3
g4
Ntp308
Rp309
(dp310
g8
I0
sg9
I01
sbs(I-6
I0
tp311
g2
(g3
g4
Ntp312
Rp313
(dp314
g8
I0
sg9
I01
sbs(I-4
I-4
tp315
g2
(g11
g4
Ntp316
Rp317
(dp318
g8
I0
sg9
I01
sg15
I00
sbs(I-4
I3
tp319
g2
(g3
g4
Ntp320
Rp321
(dp322
g8
I0
sg9
I01
sbs(I4
I-2
tp323
g2
(g3
g4
Ntp324
Rp325
(dp326
g8
I0
sg9
I01
sbs(I3
I-4
tp327
g2
(g41
g4
Ntp328
Rp329
(dp330
g8
I0
sg45
I1
sg9
I00
sbs(I1
I-3
tp331
g2
(g3
g4
Ntp332
Rp333
(dp334
g8
I0
sg9
I01
sbs(I-4
I-5
tp335
g2
(g3
g4
Ntp336
Rp337
(dp338
g8
I0
sg9
I01
sbs(I-9
I0
tp339
g2
(g3
g4
Ntp340
Rp341
(dp342
g8
I0
sg9
I01
sbs(I-4
I0
tp343
g2
(g3
g4
Ntp344
Rp345
(dp346
g8
I0
sg9
I01
sbs(I4
I0
tp347
g2
(g3
g4
Ntp348
Rp349
(dp350
g8
I0
sg9
I01
sbs(I2
I-5
tp351
g2
(g3
g4
Ntp352
Rp353
(dp354
g8
I0
sg9
I01
sbs(I3
I-5
tp355
g2
(g3
g4
Ntp356
Rp357
(dp358
g8
I0
sg9
I01
sbs(I3
I3
tp359
g2
(g3
g4
Ntp360
Rp361
(dp362
g8
I0
sg9
I01
sbs(I-1
I-7
tp363
g2
(g41
g4
Ntp364
Rp365
(dp366
g8
I0
sg45
I1
sg9
I00
sbs(I0
I-7
tp367
g2
(g41
g4
Ntp368
Rp369
(dp370
g8
I0
sg45
I1
sg9
I00
sbs(I-7
I1
tp371
g2
(g41
g4
Ntp372
Rp373
(dp374
g8
I0
sg45
I1
sg9
I00
sbs(I4
I3
tp375
g2
(g3
g4
Ntp376
Rp377
(dp378
g8
I0
sg9
I01
sbs(I-5
I2
tp379
g2
(cookoobah.core
Launcher
p380
g4
Ntp381
Rp382
(dp383
g8
I0
sS'direction'
p384
(I1
I0
tp385
sg9
I01
sbs.